libdouble-conversion.so.1 libdouble-conversion1 #MINVER#
 _ZN17double_conversion10BignumDtoaEdNS_14BignumDtoaModeEiNS_6VectorIcEEPiS3_@Base 2.0.0
 _ZN17double_conversion13FastFixedDtoaEdiNS_6VectorIcEEPiS2_@Base 2.0.0
 _ZN17double_conversion16PowersOfTenCache19kMaxDecimalExponentE@Base 2.0.0
 _ZN17double_conversion16PowersOfTenCache19kMinDecimalExponentE@Base 2.0.0
 _ZN17double_conversion16PowersOfTenCache24kDecimalExponentDistanceE@Base 2.0.0
 _ZN17double_conversion16PowersOfTenCache32GetCachedPowerForDecimalExponentEiPNS_5DiyFpEPi@Base 2.0.0
 _ZN17double_conversion16PowersOfTenCache36GetCachedPowerForBinaryExponentRangeEiiPNS_5DiyFpEPi@Base 2.0.0
 _ZN17double_conversion23DoubleToStringConverter13DoubleToAsciiEdNS0_8DtoaModeEiPciPbPiS4_@Base 2.0.0
 _ZN17double_conversion23DoubleToStringConverter19EcmaScriptConverterEv@Base 2.0.0
 _ZN17double_conversion5DiyFp8MultiplyERKS0_@Base 2.0.0
 _ZN17double_conversion6Bignum11PlusCompareERKS0_S2_S2_@Base 2.0.0
 _ZN17double_conversion6Bignum12AssignBignumERKS0_@Base 2.0.0
 _ZN17double_conversion6Bignum12AssignUInt16Et@Base 2.0.0
 _ZN17double_conversion6Bignum12AssignUInt64Em@Base 2.0.0
 _ZN17double_conversion6Bignum13SubtractTimesERKS0_i@Base 2.0.0
 _ZN17double_conversion6Bignum14SubtractBignumERKS0_@Base 2.0.0
 _ZN17double_conversion6Bignum15AssignHexStringENS_6VectorIKcEE@Base 2.0.0
 _ZN17double_conversion6Bignum15BigitsShiftLeftEi@Base 2.0.0
 _ZN17double_conversion6Bignum16MultiplyByUInt32Ej@Base 2.0.0
 _ZN17double_conversion6Bignum16MultiplyByUInt64Em@Base 2.0.0
 _ZN17double_conversion6Bignum17AssignPowerUInt16Eti@Base 2.0.0
 _ZN17double_conversion6Bignum19AssignDecimalStringENS_6VectorIKcEE@Base 2.0.0
 _ZN17double_conversion6Bignum20MultiplyByPowerOfTenEi@Base 2.0.0
 _ZN17double_conversion6Bignum21DivideModuloIntBignumERKS0_@Base 2.0.0
 _ZN17double_conversion6Bignum4ZeroEv@Base 2.0.0
 _ZN17double_conversion6Bignum5AlignERKS0_@Base 2.0.0
 _ZN17double_conversion6Bignum5ClampEv@Base 2.0.0
 _ZN17double_conversion6Bignum6SquareEv@Base 2.0.0
 _ZN17double_conversion6Bignum7CompareERKS0_S2_@Base 2.0.0
 _ZN17double_conversion6Bignum9AddBignumERKS0_@Base 2.0.0
 _ZN17double_conversion6Bignum9AddUInt64Em@Base 2.0.0
 _ZN17double_conversion6Bignum9ShiftLeftEi@Base 2.0.0
 _ZN17double_conversion6BignumC1Ev@Base 2.0.0
 _ZN17double_conversion6BignumC2Ev@Base 2.0.0
 _ZN17double_conversion6StrtodENS_6VectorIKcEEi@Base 2.0.0
 _ZN17double_conversion6StrtofENS_6VectorIKcEEi@Base 2.0.0
 _ZN17double_conversion8FastDtoaEdNS_12FastDtoaModeEiNS_6VectorIcEEPiS3_@Base 2.0.0
 _ZNK17double_conversion23DoubleToStringConverter11ToPrecisionEdiPNS_13StringBuilderE@Base 2.0.0
 _ZNK17double_conversion23DoubleToStringConverter13ToExponentialEdiPNS_13StringBuilderE@Base 2.0.0
 _ZNK17double_conversion23DoubleToStringConverter19HandleSpecialValuesEdPNS_13StringBuilderE@Base 2.0.0
 _ZNK17double_conversion23DoubleToStringConverter20ToShortestIeeeNumberEdPNS_13StringBuilderENS0_8DtoaModeE@Base 2.0.0
 _ZNK17double_conversion23DoubleToStringConverter27CreateDecimalRepresentationEPKciiiPNS_13StringBuilderE@Base 2.0.0
 _ZNK17double_conversion23DoubleToStringConverter31CreateExponentialRepresentationEPKciiPNS_13StringBuilderE@Base 2.0.0
 _ZNK17double_conversion23DoubleToStringConverter7ToFixedEdiPNS_13StringBuilderE@Base 2.0.0
 _ZNK17double_conversion23StringToDoubleConverter12StringToIeeeIPKcEEdT_ibPi@Base 2.0.0
 _ZNK17double_conversion23StringToDoubleConverter12StringToIeeeIPKtEEdT_ibPi@Base 2.0.0
 _ZNK17double_conversion23StringToDoubleConverter13StringToFloatEPKciPi@Base 2.0.0
 _ZNK17double_conversion23StringToDoubleConverter13StringToFloatEPKtiPi@Base 2.0.0
 _ZNK17double_conversion23StringToDoubleConverter14StringToDoubleEPKciPi@Base 2.0.0
 _ZNK17double_conversion23StringToDoubleConverter14StringToDoubleEPKtiPi@Base 2.0.0
 _ZNK17double_conversion6Bignum11ToHexStringEPci@Base 2.0.0
 _ZNK17double_conversion6Bignum7BigitAtEi@Base 2.0.0
 _ZNK17double_conversion6Bignum9IsClampedEv@Base 2.0.0
