libenchant.so.1 libenchant1c2a #MINVER#
 enchant_broker_describe@Base 1.6.0
 enchant_broker_dict_exists@Base 1.6.0
 enchant_broker_free@Base 1.6.0
 enchant_broker_free_dict@Base 1.6.0
 enchant_broker_get_error@Base 1.6.0
 enchant_broker_get_param@Base 1.6.0
 enchant_broker_init@Base 1.6.0
 enchant_broker_list_dicts@Base 1.6.0
 enchant_broker_request_dict@Base 1.6.0
 enchant_broker_request_pwl_dict@Base 1.6.0
 enchant_broker_set_ordering@Base 1.6.0
 enchant_broker_set_param@Base 1.6.0
 enchant_dict_add@Base 1.6.0
 enchant_dict_add_to_personal@Base 1.6.0
 enchant_dict_add_to_pwl@Base 1.6.0
 enchant_dict_add_to_session@Base 1.6.0
 enchant_dict_check@Base 1.6.0
 enchant_dict_describe@Base 1.6.0
 enchant_dict_free_string_list@Base 1.6.0
 enchant_dict_free_suggestions@Base 1.6.0
 enchant_dict_get_error@Base 1.6.0
 enchant_dict_is_added@Base 1.6.0
 enchant_dict_is_in_session@Base 1.6.0
 enchant_dict_is_removed@Base 1.6.0
 enchant_dict_remove@Base 1.6.0
 enchant_dict_remove_from_session@Base 1.6.0
 enchant_dict_set_error@Base 1.6.0
 enchant_dict_store_replacement@Base 1.6.0
 enchant_dict_suggest@Base 1.6.0
 enchant_fopen@Base 1.6.0
 enchant_get_dirs_from_param@Base 1.6.0
 enchant_get_prefix_dir@Base 1.6.0
 enchant_get_registry_value@Base 1.6.0
 enchant_get_user_config_dirs@Base 1.6.0
 enchant_get_user_language@Base 1.6.0
 enchant_get_version@Base 1.6.0
 enchant_provider_set_error@Base 1.6.0
 enchant_pwl_add@Base 1.6.0
 enchant_pwl_check@Base 1.6.0
 enchant_pwl_free@Base 1.6.0
 enchant_pwl_free_string_list@Base 1.6.0
 enchant_pwl_init@Base 1.6.0
 enchant_pwl_init_with_file@Base 1.6.0
 enchant_pwl_remove@Base 1.6.0
 enchant_pwl_suggest@Base 1.6.0
 gbr_init@Base 1.6.0
 gbr_init_lib@Base 1.6.0
 qYFU3719188448765_gbr_find_bin_dir@Base 1.6.0
 qYFU3719188448765_gbr_find_data_dir@Base 1.6.0
 qYFU3719188448765_gbr_find_etc_dir@Base 1.6.0
 qYFU3719188448765_gbr_find_exe@Base 1.6.0
 qYFU3719188448765_gbr_find_exe_dir@Base 1.6.0
 qYFU3719188448765_gbr_find_lib_dir@Base 1.6.0
 qYFU3719188448765_gbr_find_libexec_dir@Base 1.6.0
 qYFU3719188448765_gbr_find_locale_dir@Base 1.6.0
 qYFU3719188448765_gbr_find_prefix@Base 1.6.0
 qYFU3719188448765_gbr_find_sbin_dir@Base 1.6.0
libenchant_aspell.so libenchant1c2a #MINVER#
 configure_enchant_provider@Base 1.6.0
 init_enchant_provider@Base 1.6.0
libenchant_hspell.so libenchant1c2a #MINVER#
 allocate_nodes@Base 1.6.0
 corlist_add@Base 1.6.0
 corlist_free@Base 1.6.0
 corlist_init@Base 1.6.0
 delete_dict_radix@Base 1.6.0
 dmasks@Base 1.6.0
 hspell_check_word@Base 1.6.0
 hspell_debug@Base 1.6.0
 hspell_enum_splits@Base 1.6.0
 hspell_get_dictionary_path@Base 1.6.0
 hspell_init@Base 1.6.0
 hspell_is_canonic_gimatria@Base 1.6.0
 hspell_set_dictionary_path@Base 1.6.0
 hspell_trycorrect@Base 1.6.0
 hspell_uninit@Base 1.6.0
 init_enchant_provider@Base 1.6.0
 linginfo_desc2ps@Base 1.6.0
 linginfo_desc2text@Base 1.6.0
 linginfo_free@Base 1.6.0
 linginfo_init@Base 1.6.0
 linginfo_lookup@Base 1.6.0
 linginfo_stem2text@Base 1.6.0
 lookup@Base 1.6.0
 new_dict_radix@Base 1.6.0
 print_sizes@Base 1.6.0
 print_stats@Base 1.6.0
 print_tree@Base 1.6.0
 read_dict@Base 1.6.0
libenchant_ispell.so libenchant1c2a #MINVER#
 _Z7myspacet@Base 1.6.0
 _ZN13ISpellChecker10addvheaderEP4dent@Base 1.6.0
 _ZN13ISpellChecker10clearindexEP7flagptr@Base 1.6.0
 _ZN13ISpellChecker10expand_preEPcPtPliS0_@Base 1.6.0
 _ZN13ISpellChecker10expand_sufEPcPtPliiS0_@Base 1.6.0
 _ZN13ISpellChecker10ichartostrEPcPtii@Base 1.6.0
 _ZN13ISpellChecker10printicharEi@Base 1.6.0
 _ZN13ISpellChecker10strtoicharEPtPcii@Base 1.6.0
 _ZN13ISpellChecker11extraletterEPt@Base 1.6.0
 _ZN13ISpellChecker11ichartosstrEPti@Base 1.6.0
 _ZN13ISpellChecker11strtosicharEPci@Base 1.6.0
 _ZN13ISpellChecker11suggestWordEPKcmPm@Base 1.6.0
 _ZN13ISpellChecker11wrongletterEPt@Base 1.6.0
 _ZN13ISpellChecker12compoundgoodEPti@Base 1.6.0
 _ZN13ISpellChecker12findfiletypeEPKciPi@Base 1.6.0
 _ZN13ISpellChecker12ins_root_capEPtS0_iiiiP4dentP7flagentS4_@Base 1.6.0
 _ZN13ISpellChecker12isboundarychEt@Base 1.6.0
 _ZN13ISpellChecker12missingspaceEPt@Base 1.6.0
 _ZN13ISpellChecker12pfx_list_chkEPtS0_iiiP7flagptrii@Base 1.6.0
 _ZN13ISpellChecker12suf_list_chkEPtS0_iP7flagptriP7flagentii@Base 1.6.0
 _ZN13ISpellChecker12wrongcapitalEPt@Base 1.6.0
 _ZN13ISpellChecker13ispell_lookupEPti@Base 1.6.0
 _ZN13ISpellChecker13isstringstartEt@Base 1.6.0
 _ZN13ISpellChecker13missingletterEPt@Base 1.6.0
 _ZN13ISpellChecker13save_root_capEPtS0_iiiiP4dentP7flagentS4_PA120_tPi@Base 1.6.0
 _ZN13ISpellChecker13stringcharlenEPci@Base 1.6.0
 _ZN13ISpellChecker14loadDictionaryEPKc@Base 1.6.0
 _ZN13ISpellChecker16pr_pre_expansionEPcPtP7flagentPliS0_@Base 1.6.0
 _ZN13ISpellChecker16pr_suf_expansionEPcPtP7flagentiS0_@Base 1.6.0
 _ZN13ISpellChecker16transposedletterEPt@Base 1.6.0
 _ZN13ISpellChecker17makepossibilitiesEPt@Base 1.6.0
 _ZN13ISpellChecker17requestDictionaryEPKc@Base 1.6.0
 _ZN13ISpellChecker18free_ispell_structEv@Base 1.6.0
 _ZN13ISpellChecker19alloc_ispell_structEv@Base 1.6.0
 _ZN13ISpellChecker21setDictionaryEncodingEPKcS1_@Base 1.6.0
 _ZN13ISpellChecker22try_autodetect_charsetEPKc@Base 1.6.0
 _ZN13ISpellChecker25loadDictionaryForLanguageEPKc@Base 1.6.0
 _ZN13ISpellChecker4goodEPtiiii@Base 1.6.0
 _ZN13ISpellChecker4hashEPti@Base 1.6.0
 _ZN13ISpellChecker5linitEPc@Base 1.6.0
 _ZN13ISpellChecker6cap_okEPtP7successi@Base 1.6.0
 _ZN13ISpellChecker6insertEPt@Base 1.6.0
 _ZN13ISpellChecker6upcaseEPt@Base 1.6.0
 _ZN13ISpellChecker7casecmpEPcS0_i@Base 1.6.0
 _ZN13ISpellChecker7chk_affEPtS0_iiiii@Base 1.6.0
 _ZN13ISpellChecker7chk_sufEPtS0_iiP7flagentii@Base 1.6.0
 _ZN13ISpellChecker7forcelcEPti@Base 1.6.0
 _ZN13ISpellChecker7ins_capEPtS0_@Base 1.6.0
 _ZN13ISpellChecker7lowcaseEPt@Base 1.6.0
 _ZN13ISpellChecker7mylowerEt@Base 1.6.0
 _ZN13ISpellChecker7myupperEt@Base 1.6.0
 _ZN13ISpellChecker7whatcapEPt@Base 1.6.0
 _ZN13ISpellChecker8chupcaseEPc@Base 1.6.0
 _ZN13ISpellChecker8initckchEPc@Base 1.6.0
 _ZN13ISpellChecker8iswordchEt@Base 1.6.0
 _ZN13ISpellChecker8save_capEPtS0_PA120_t@Base 1.6.0
 _ZN13ISpellChecker9checkWordEPKcm@Base 1.6.0
 _ZN13ISpellChecker9mytolowerEt@Base 1.6.0
 _ZN13ISpellChecker9mytoupperEt@Base 1.6.0
 _ZN13ISpellCheckerC1EP18str_enchant_broker@Base 1.6.0
 _ZN13ISpellCheckerC2EP18str_enchant_broker@Base 1.6.0
 _ZN13ISpellCheckerD1Ev@Base 1.6.0
 _ZN13ISpellCheckerD2Ev@Base 1.6.0
 _ZNSt6vectorINSt7__cxx1112basic_stringIcSt11char_traitsIcESaIcEEESaIS5_EE17_M_realloc_insertIJS5_EEEvN9__gnu_cxx17__normal_iteratorIPS5_S7_EEDpOT_@Base 1.6.0
 _ZNSt6vectorINSt7__cxx1112basic_stringIcSt11char_traitsIcESaIcEEESaIS5_EED1Ev@Base 1.6.0
 _ZNSt6vectorINSt7__cxx1112basic_stringIcSt11char_traitsIcESaIcEEESaIS5_EED2Ev@Base 1.6.0
 gnMaskBits@Base 1.6.0
 icharcmp@Base 1.6.0
 icharcpy@Base 1.6.0
 icharlen@Base 1.6.0
 icharncmp@Base 1.6.0
 init_enchant_provider@Base 1.6.0
libenchant_myspell.so libenchant1c2a #MINVER#
 _ZN14MySpellChecker11suggestWordEPKcmPm@Base 1.6.0
 _ZN14MySpellChecker17requestDictionaryEPKc@Base 1.6.0
 _ZN14MySpellChecker9checkWordEPKcm@Base 1.6.0
 _ZN14MySpellCheckerC1EP18str_enchant_broker@Base 1.6.0
 _ZN14MySpellCheckerC2EP18str_enchant_broker@Base 1.6.0
 _ZN14MySpellCheckerD1Ev@Base 1.6.0
 _ZN14MySpellCheckerD2Ev@Base 1.6.0
 _ZNSt6vectorINSt7__cxx1112basic_stringIcSt11char_traitsIcESaIcEEESaIS5_EE12emplace_backIJS5_EEEvDpOT_@Base 1.6.0
 _ZNSt6vectorINSt7__cxx1112basic_stringIcSt11char_traitsIcESaIcEEESaIS5_EE17_M_realloc_insertIJS5_EEEvN9__gnu_cxx17__normal_iteratorIPS5_S7_EEDpOT_@Base 1.6.0
 _ZNSt6vectorINSt7__cxx1112basic_stringIcSt11char_traitsIcESaIcEEESaIS5_EED1Ev@Base 1.6.0
 _ZNSt6vectorINSt7__cxx1112basic_stringIcSt11char_traitsIcESaIcEEESaIS5_EED2Ev@Base 1.6.0
 init_enchant_provider@Base 1.6.0
