libexiv2.so.14 libexiv2-14 #MINVER#
 _Z11_exvGettextPKc@Base 0.25
 _ZN5Exiv210AsciiValue4readERKNSt7__cxx1112basic_stringIcSt11char_traitsIcESaIcEEE@Base 0.25
 _ZN5Exiv210AsciiValueC1ERKNSt7__cxx1112basic_stringIcSt11char_traitsIcESaIcEEE@Base 0.25
 _ZN5Exiv210AsciiValueC1Ev@Base 0.25
 _ZN5Exiv210AsciiValueC2ERKNSt7__cxx1112basic_stringIcSt11char_traitsIcESaIcEEE@Base 0.25
 _ZN5Exiv210AsciiValueC2Ev@Base 0.25
 _ZN5Exiv210AsciiValueD0Ev@Base 0.25
 _ZN5Exiv210AsciiValueD1Ev@Base 0.25
 _ZN5Exiv210AsciiValueD2Ev@Base 0.25
 _ZN5Exiv210BasicErrorIcE6setMsgEv@Base 0.25
 _ZN5Exiv210ExifParser6decodeERNS_8ExifDataEPKhj@Base 0.25
 _ZN5Exiv210ExifParser6encodeERSt6vectorIhSaIhEEPKhjNS_9ByteOrderERKNS_8ExifDataE@Base 0.25
 _ZN5Exiv210ExifThumbCC1ERKNS_8ExifDataE@Base 0.25
 _ZN5Exiv210ExifThumbCC2ERKNS_8ExifDataE@Base 0.25
 _ZN5Exiv210IptcParser6decodeERNS_8IptcDataEPKhj@Base 0.25
 _ZN5Exiv210IptcParser6encodeERKNS_8IptcDataE@Base 0.25
 _ZN5Exiv210IptcParser7marker_E@Base 0.25
 _ZN5Exiv210RecordInfoC1EtPKcS2_@Base 0.25
 _ZN5Exiv210RecordInfoC2EtPKcS2_@Base 0.25
 _ZN5Exiv210TiffParser6decodeERNS_8ExifDataERNS_8IptcDataERNS_7XmpDataEPKhj@Base 0.25
 _ZN5Exiv210TiffParser6encodeERNS_7BasicIoEPKhjNS_9ByteOrderERKNS_8ExifDataERKNS_8IptcDataERKNS_7XmpDataE@Base 0.25
 _ZN5Exiv210XmpSidecar10setCommentERKNSt7__cxx1112basic_stringIcSt11char_traitsIcESaIcEEE@Base 0.25
 _ZN5Exiv210XmpSidecar12readMetadataEv@Base 0.25
 _ZN5Exiv210XmpSidecar13writeMetadataEv@Base 0.25
 _ZN5Exiv210XmpSidecarC1ESt8auto_ptrINS_7BasicIoEEb@Base 0.25
 _ZN5Exiv210XmpSidecarC2ESt8auto_ptrINS_7BasicIoEEb@Base 0.25
 _ZN5Exiv210exvGettextEPKc@Base 0.25
 _ZN5Exiv210fileExistsERKNSt7__cxx1112basic_stringIcSt11char_traitsIcESaIcEEEb@Base 0.25
 _ZN5Exiv210isJpegTypeERNS_7BasicIoEb@Base 0.25
 _ZN5Exiv210isTiffTypeERNS_7BasicIoEb@Base 0.25
 _ZN5Exiv210parseFloatERKNSt7__cxx1112basic_stringIcSt11char_traitsIcESaIcEEERb@Base 0.25
 _ZN5Exiv210saturationERKNS_8ExifDataE@Base 0.25
 _ZN5Exiv211StringValueC1ERKNSt7__cxx1112basic_stringIcSt11char_traitsIcESaIcEEE@Base 0.25
 _ZN5Exiv211StringValueC1Ev@Base 0.25
 _ZN5Exiv211StringValueC2ERKNSt7__cxx1112basic_stringIcSt11char_traitsIcESaIcEEE@Base 0.25
 _ZN5Exiv211StringValueC2Ev@Base 0.25
 _ZN5Exiv211StringValueD0Ev@Base 0.25
 _ZN5Exiv211StringValueD1Ev@Base 0.25
 _ZN5Exiv211StringValueD2Ev@Base 0.25
 _ZN5Exiv211focalLengthERKNS_8ExifDataE@Base 0.25
 _ZN5Exiv211getRationalEPKhNS_9ByteOrderE@Base 0.25
 _ZN5Exiv211orientationERKNS_8ExifDataE@Base 0.25
 _ZN5Exiv211testVersionEiii@Base 0.25
 _ZN5Exiv212CommentValue11CharsetInfo13charsetTable_E@Base 0.25
 _ZN5Exiv212CommentValue11CharsetInfo15charsetIdByCodeERKNSt7__cxx1112basic_stringIcSt11char_traitsIcESaIcEEE@Base 0.25
 _ZN5Exiv212CommentValue11CharsetInfo15charsetIdByNameERKNSt7__cxx1112basic_stringIcSt11char_traitsIcESaIcEEE@Base 0.25
 _ZN5Exiv212CommentValue11CharsetInfo4codeENS0_9CharsetIdE@Base 0.25
 _ZN5Exiv212CommentValue11CharsetInfo4nameENS0_9CharsetIdE@Base 0.25
 _ZN5Exiv212CommentValue12CharsetTableC1ENS0_9CharsetIdEPKcS4_@Base 0.25
 _ZN5Exiv212CommentValue12CharsetTableC2ENS0_9CharsetIdEPKcS4_@Base 0.25
 _ZN5Exiv212CommentValue4readEPKhlNS_9ByteOrderE@Base 0.25
 _ZN5Exiv212CommentValue4readERKNSt7__cxx1112basic_stringIcSt11char_traitsIcESaIcEEE@Base 0.25
 _ZN5Exiv212CommentValueC1ERKNSt7__cxx1112basic_stringIcSt11char_traitsIcESaIcEEE@Base 0.25
 _ZN5Exiv212CommentValueC1Ev@Base 0.25
 _ZN5Exiv212CommentValueC2ERKNSt7__cxx1112basic_stringIcSt11char_traitsIcESaIcEEE@Base 0.25
 _ZN5Exiv212CommentValueC2Ev@Base 0.25
 _ZN5Exiv212CommentValueD0Ev@Base 0.25
 _ZN5Exiv212CommentValueD1Ev@Base 0.25
 _ZN5Exiv212CommentValueD2Ev@Base 0.25
 _ZN5Exiv212ImageFactory4openEPKhl@Base 0.25
 _ZN5Exiv212ImageFactory4openERKNSt7__cxx1112basic_stringIcSt11char_traitsIcESaIcEEEb@Base 0.25
 _ZN5Exiv212ImageFactory4openESt8auto_ptrINS_7BasicIoEE@Base 0.25
 _ZN5Exiv212ImageFactory6createEi@Base 0.25
 _ZN5Exiv212ImageFactory6createEiRKNSt7__cxx1112basic_stringIcSt11char_traitsIcESaIcEEE@Base 0.25
 _ZN5Exiv212ImageFactory6createEiSt8auto_ptrINS_7BasicIoEE@Base 0.25
 _ZN5Exiv212ImageFactory7getTypeEPKhl@Base 0.25
 _ZN5Exiv212ImageFactory7getTypeERKNSt7__cxx1112basic_stringIcSt11char_traitsIcESaIcEEE@Base 0.25
 _ZN5Exiv212ImageFactory7getTypeERNS_7BasicIoE@Base 0.25
 _ZN5Exiv212ImageFactory8createIoERKNSt7__cxx1112basic_stringIcSt11char_traitsIcESaIcEEEb@Base 0.25
 _ZN5Exiv212ImageFactory9checkModeEiNS_10MetadataIdE@Base 0.25
 _ZN5Exiv212ImageFactory9checkTypeEiRNS_7BasicIoEb@Base 0.25
 _ZN5Exiv212IptcDataSets10dataSetIdxERKNSt7__cxx1112basic_stringIcSt11char_traitsIcESaIcEEEt@Base 0.25
 _ZN5Exiv212IptcDataSets10dataSetIdxEtt@Base 0.25
 _ZN5Exiv212IptcDataSets10recordDescEt@Base 0.25
 _ZN5Exiv212IptcDataSets10recordNameB5cxx11Et@Base 0.25
 _ZN5Exiv212IptcDataSets11dataSetDescEtt@Base 0.25
 _ZN5Exiv212IptcDataSets11dataSetListERSo@Base 0.25
 _ZN5Exiv212IptcDataSets11dataSetNameB5cxx11Ett@Base 0.25
 _ZN5Exiv212IptcDataSets11dataSetTypeEtt@Base 0.25
 _ZN5Exiv212IptcDataSets11recordInfo_E@Base 0.25
 _ZN5Exiv212IptcDataSets12dataSetTitleEtt@Base 0.25
 _ZN5Exiv212IptcDataSets13dataSetPsNameEtt@Base 0.25
 _ZN5Exiv212IptcDataSets17dataSetRepeatableEtt@Base 0.25
 _ZN5Exiv212IptcDataSets18envelopeRecordListEv@Base 0.25
 _ZN5Exiv212IptcDataSets22application2RecordListEv@Base 0.25
 _ZN5Exiv212IptcDataSets7dataSetERKNSt7__cxx1112basic_stringIcSt11char_traitsIcESaIcEEEt@Base 0.25
 _ZN5Exiv212IptcDataSets8recordIdERKNSt7__cxx1112basic_stringIcSt11char_traitsIcESaIcEEE@Base 0.25
 _ZN5Exiv212IptcDataSets8records_E@Base 0.25
 _ZN5Exiv212LangAltValue4readERKNSt7__cxx1112basic_stringIcSt11char_traitsIcESaIcEEE@Base 0.25
 _ZN5Exiv212LangAltValueC1ERKNSt7__cxx1112basic_stringIcSt11char_traitsIcESaIcEEE@Base 0.25
 _ZN5Exiv212LangAltValueC1Ev@Base 0.25
 _ZN5Exiv212LangAltValueC2ERKNSt7__cxx1112basic_stringIcSt11char_traitsIcESaIcEEE@Base 0.25
 _ZN5Exiv212LangAltValueC2Ev@Base 0.25
 _ZN5Exiv212PreviewImageC1ERKS0_@Base 0.25
 _ZN5Exiv212PreviewImageC2ERKS0_@Base 0.25
 _ZN5Exiv212PreviewImageD1Ev@Base 0.25
 _ZN5Exiv212PreviewImageD2Ev@Base 0.25
 _ZN5Exiv212PreviewImageaSERKS0_@Base 0.25
 _ZN5Exiv212XmpTextValue4readERKNSt7__cxx1112basic_stringIcSt11char_traitsIcESaIcEEE@Base 0.25
 _ZN5Exiv212XmpTextValueC1ERKNSt7__cxx1112basic_stringIcSt11char_traitsIcESaIcEEE@Base 0.25
 _ZN5Exiv212XmpTextValueC1Ev@Base 0.25
 _ZN5Exiv212XmpTextValueC2ERKNSt7__cxx1112basic_stringIcSt11char_traitsIcESaIcEEE@Base 0.25
 _ZN5Exiv212XmpTextValueC2Ev@Base 0.25
 _ZN5Exiv212base64decodeEPKcPcm@Base 0.25
 _ZN5Exiv212base64encodeEPKvmPcm@Base 0.25
 _ZN5Exiv212exposureModeERKNS_8ExifDataE@Base 0.25
 _ZN5Exiv212exposureTimeERKNS_8ExifDataE@Base 0.25
 _ZN5Exiv212fileProtocolERKNSt7__cxx1112basic_stringIcSt11char_traitsIcESaIcEEE@Base 0.25
 _ZN5Exiv212getURationalEPKhNS_9ByteOrderE@Base 0.25
 _ZN5Exiv212imageQualityERKNS_8ExifDataE@Base 0.25
 _ZN5Exiv212meteringModeERKNS_8ExifDataE@Base 0.25
 _ZN5Exiv212serialNumberERKNS_8ExifDataE@Base 0.25
 _ZN5Exiv212whiteBalanceERKNS_8ExifDataE@Base 0.25
 _ZN5Exiv213XmpArrayValue4readERKNSt7__cxx1112basic_stringIcSt11char_traitsIcESaIcEEE@Base 0.25
 _ZN5Exiv213XmpArrayValueC1ENS_6TypeIdE@Base 0.25
 _ZN5Exiv213XmpArrayValueC2ENS_6TypeIdE@Base 0.25
 _ZN5Exiv213XmpProperties10registerNsERKNSt7__cxx1112basic_stringIcSt11char_traitsIcESaIcEEES8_@Base 0.25
 _ZN5Exiv213XmpProperties11nsRegistry_B5cxx11E@Base 0.25
 _ZN5Exiv213XmpProperties12propertyDescERKNS_6XmpKeyE@Base 0.25
 _ZN5Exiv213XmpProperties12propertyInfoERKNS_6XmpKeyE@Base 0.25
 _ZN5Exiv213XmpProperties12propertyListERKNSt7__cxx1112basic_stringIcSt11char_traitsIcESaIcEEE@Base 0.25
 _ZN5Exiv213XmpProperties12propertyTypeERKNS_6XmpKeyE@Base 0.25
 _ZN5Exiv213XmpProperties12unregisterNsERKNSt7__cxx1112basic_stringIcSt11char_traitsIcESaIcEEE@Base 0.25
 _ZN5Exiv213XmpProperties12unregisterNsEv@Base 0.25
 _ZN5Exiv213XmpProperties13printPropertyERSoRKNSt7__cxx1112basic_stringIcSt11char_traitsIcESaIcEEERKNS_5ValueE@Base 0.25
 _ZN5Exiv213XmpProperties13propertyTitleERKNS_6XmpKeyE@Base 0.25
 _ZN5Exiv213XmpProperties15printPropertiesERSoRKNSt7__cxx1112basic_stringIcSt11char_traitsIcESaIcEEE@Base 0.25
 _ZN5Exiv213XmpProperties16lookupNsRegistryERKNS_9XmpNsInfo6PrefixE@Base 0.25
 _ZN5Exiv213XmpProperties2nsERKNSt7__cxx1112basic_stringIcSt11char_traitsIcESaIcEEE@Base 0.25
 _ZN5Exiv213XmpProperties6nsDescERKNSt7__cxx1112basic_stringIcSt11char_traitsIcESaIcEEE@Base 0.25
 _ZN5Exiv213XmpProperties6nsInfoERKNSt7__cxx1112basic_stringIcSt11char_traitsIcESaIcEEE@Base 0.25
 _ZN5Exiv213XmpProperties6prefixERKNSt7__cxx1112basic_stringIcSt11char_traitsIcESaIcEEE@Base 0.25
 _ZN5Exiv213copyExifToXmpERKNS_8ExifDataERNS_7XmpDataE@Base 0.25
 _ZN5Exiv213copyIptcToXmpERKNS_8IptcDataERNS_7XmpDataEPKc@Base 0.25
 _ZN5Exiv213copyXmpToExifERKNS_7XmpDataERNS_8ExifDataE@Base 0.25
 _ZN5Exiv213copyXmpToIptcERKNS_7XmpDataERNS_8IptcDataE@Base 0.25
 _ZN5Exiv213moveExifToXmpERNS_8ExifDataERNS_7XmpDataE@Base 0.25
 _ZN5Exiv213moveIptcToXmpERNS_8IptcDataERNS_7XmpDataEPKc@Base 0.25
 _ZN5Exiv213moveXmpToExifERNS_7XmpDataERNS_8ExifDataE@Base 0.25
 _ZN5Exiv213moveXmpToIptcERNS_7XmpDataERNS_8IptcDataE@Base 0.25
 _ZN5Exiv213parseRationalERKNSt7__cxx1112basic_stringIcSt11char_traitsIcESaIcEEERb@Base 0.25
 _ZN5Exiv213pathOfFileUrlERKNSt7__cxx1112basic_stringIcSt11char_traitsIcESaIcEEE@Base 0.25
 _ZN5Exiv213versionNumberEv@Base 0.25
 _ZN5Exiv213versionStringB5cxx11Ev@Base 0.25
 _ZN5Exiv214PreviewManagerC1ERKNS_5ImageE@Base 0.25
 _ZN5Exiv214PreviewManagerC2ERKNS_5ImageE@Base 0.25
 _ZN5Exiv214newBmpInstanceESt8auto_ptrINS_7BasicIoEEb@Base 0.25
 _ZN5Exiv214newCr2InstanceESt8auto_ptrINS_7BasicIoEEb@Base 0.25
 _ZN5Exiv214newCrwInstanceESt8auto_ptrINS_7BasicIoEEb@Base 0.25
 _ZN5Exiv214newEpsInstanceESt8auto_ptrINS_7BasicIoEEb@Base 0.25
 _ZN5Exiv214newExvInstanceESt8auto_ptrINS_7BasicIoEEb@Base 0.25
 _ZN5Exiv214newGifInstanceESt8auto_ptrINS_7BasicIoEEb@Base 0.25
 _ZN5Exiv214newJp2InstanceESt8auto_ptrINS_7BasicIoEEb@Base 0.25
 _ZN5Exiv214newMrwInstanceESt8auto_ptrINS_7BasicIoEEb@Base 0.25
 _ZN5Exiv214newOrfInstanceESt8auto_ptrINS_7BasicIoEEb@Base 0.25
 _ZN5Exiv214newPgfInstanceESt8auto_ptrINS_7BasicIoEEb@Base 0.25
 _ZN5Exiv214newPngInstanceESt8auto_ptrINS_7BasicIoEEb@Base 0.25
 _ZN5Exiv214newPsdInstanceESt8auto_ptrINS_7BasicIoEEb@Base 0.25
 _ZN5Exiv214newRafInstanceESt8auto_ptrINS_7BasicIoEEb@Base 0.25
 _ZN5Exiv214newRw2InstanceESt8auto_ptrINS_7BasicIoEEb@Base 0.25
 _ZN5Exiv214newTgaInstanceESt8auto_ptrINS_7BasicIoEEb@Base 0.25
 _ZN5Exiv214newXmpInstanceESt8auto_ptrINS_7BasicIoEEb@Base 0.25
 _ZN5Exiv215StringValueBase4readEPKhlNS_9ByteOrderE@Base 0.25
 _ZN5Exiv215StringValueBase4readERKNSt7__cxx1112basic_stringIcSt11char_traitsIcESaIcEEE@Base 0.25
 _ZN5Exiv215StringValueBaseC1ENS_6TypeIdE@Base 0.25
 _ZN5Exiv215StringValueBaseC1ENS_6TypeIdERKNSt7__cxx1112basic_stringIcSt11char_traitsIcESaIcEEE@Base 0.25
 _ZN5Exiv215StringValueBaseC1ERKS0_@Base 0.25
 _ZN5Exiv215StringValueBaseC2ENS_6TypeIdE@Base 0.25
 _ZN5Exiv215StringValueBaseC2ENS_6TypeIdERKNSt7__cxx1112basic_stringIcSt11char_traitsIcESaIcEEE@Base 0.25
 _ZN5Exiv215StringValueBaseC2ERKS0_@Base 0.25
 _ZN5Exiv215StringValueBaseD0Ev@Base 0.25
 _ZN5Exiv215StringValueBaseD1Ev@Base 0.25
 _ZN5Exiv215StringValueBaseD2Ev@Base 0.25
 _ZN5Exiv215StringValueBaseaSERKS0_@Base 0.25
 _ZN5Exiv215dumpLibraryInfoERSoRKSt6vectorI17re_pattern_bufferSaIS2_EE@Base 0.25
 _ZN5Exiv215newJpegInstanceESt8auto_ptrINS_7BasicIoEEb@Base 0.25
 _ZN5Exiv215newTiffInstanceESt8auto_ptrINS_7BasicIoEEb@Base 0.25
 _ZN5Exiv215subjectDistanceERKNS_8ExifDataE@Base 0.25
 _ZN5Exiv215syncExifWithXmpERNS_8ExifDataERNS_7XmpDataE@Base 0.25
 _ZN5Exiv216cmpMetadataByKeyERKNS_9MetadatumES2_@Base 0.25
 _ZN5Exiv216cmpMetadataByTagERKNS_9MetadatumES2_@Base 0.25
 _ZN5Exiv216sceneCaptureTypeERKNS_8ExifDataE@Base 0.25
 _ZN5Exiv219floatToRationalCastEf@Base 0.25
 _ZN5Exiv220ReplaceStringInPlaceENSt7__cxx1112basic_stringIcSt11char_traitsIcESaIcEEERKS5_S7_@Base 0.25
 _ZN5Exiv220convertStringCharsetERNSt7__cxx1112basic_stringIcSt11char_traitsIcESaIcEEEPKcS8_@Base 0.25
 _ZN5Exiv222versionNumberHexStringB5cxx11Ev@Base 0.25
 _ZN5Exiv23KeyD0Ev@Base 0.25
 _ZN5Exiv23KeyD1Ev@Base 0.25
 _ZN5Exiv23KeyD2Ev@Base 0.25
 _ZN5Exiv23KeyaSERKS0_@Base 0.25
 _ZN5Exiv23Uri5ParseERKNSt7__cxx1112basic_stringIcSt11char_traitsIcESaIcEEE@Base 0.25
 _ZN5Exiv23Uri6DecodeERS0_@Base 0.25
 _ZN5Exiv24httpERSt3mapINSt7__cxx1112basic_stringIcSt11char_traitsIcESaIcEEES6_St4lessIS6_ESaISt4pairIKS6_S6_EEESE_RS6_@Base 0.25
 _ZN5Exiv24makeERKNS_8ExifDataE@Base 0.25
 _ZN5Exiv25Image10setCommentERKNSt7__cxx1112basic_stringIcSt11char_traitsIcESaIcEEE@Base 0.25
 _ZN5Exiv25Image10setXmpDataERKNS_7XmpDataE@Base 0.25
 _ZN5Exiv25Image11setExifDataERKNS_8ExifDataE@Base 0.25
 _ZN5Exiv25Image11setIptcDataERKNS_8IptcDataE@Base 0.25
 _ZN5Exiv25Image11setMetadataERKS0_@Base 0.25
 _ZN5Exiv25Image12clearCommentEv@Base 0.25
 _ZN5Exiv25Image12clearXmpDataEv@Base 0.25
 _ZN5Exiv25Image12setByteOrderENS_9ByteOrderE@Base 0.25
 _ZN5Exiv25Image12setXmpPacketERKNSt7__cxx1112basic_stringIcSt11char_traitsIcESaIcEEE@Base 0.25
 _ZN5Exiv25Image13clearExifDataEv@Base 0.25
 _ZN5Exiv25Image13clearIptcDataEv@Base 0.25
 _ZN5Exiv25Image13clearMetadataEv@Base 0.25
 _ZN5Exiv25Image14clearXmpPacketEv@Base 0.25
 _ZN5Exiv25Image14printStructureERSoNS_20PrintStructureOptionE@Base 0.25
 _ZN5Exiv25Image18writeXmpFromPacketEb@Base 0.25
 _ZN5Exiv25Image7xmpDataEv@Base 0.25
 _ZN5Exiv25Image8exifDataEv@Base 0.25
 _ZN5Exiv25Image8iptcDataEv@Base 0.25
 _ZN5Exiv25Image9xmpPacketB5cxx11Ev@Base 0.25
 _ZN5Exiv25ImageC1EitSt8auto_ptrINS_7BasicIoEE@Base 0.25
 _ZN5Exiv25ImageC2EitSt8auto_ptrINS_7BasicIoEE@Base 0.25
 _ZN5Exiv25ImageD0Ev@Base 0.25
 _ZN5Exiv25ImageD1Ev@Base 0.25
 _ZN5Exiv25ImageD2Ev@Base 0.25
 _ZN5Exiv25MemIo16populateFakeDataEv@Base 0.25
 _ZN5Exiv25MemIo4Impl7reserveEl@Base 0.25
 _ZN5Exiv25MemIo4ImplC1EPKhl@Base 0.25
 _ZN5Exiv25MemIo4ImplC1Ev@Base 0.25
 _ZN5Exiv25MemIo4ImplC2EPKhl@Base 0.25
 _ZN5Exiv25MemIo4ImplC2Ev@Base 0.25
 _ZN5Exiv25MemIo4getbEv@Base 0.25
 _ZN5Exiv25MemIo4mmapEb@Base 0.25
 _ZN5Exiv25MemIo4openEv@Base 0.25
 _ZN5Exiv25MemIo4putbEh@Base 0.25
 _ZN5Exiv25MemIo4readEPhl@Base 0.25
 _ZN5Exiv25MemIo4readEl@Base 0.25
 _ZN5Exiv25MemIo4seekElNS_7BasicIo8PositionE@Base 0.25
 _ZN5Exiv25MemIo5closeEv@Base 0.25
 _ZN5Exiv25MemIo5msyncEv@Base 0.25
 _ZN5Exiv25MemIo5writeEPKhl@Base 0.25
 _ZN5Exiv25MemIo5writeERNS_7BasicIoE@Base 0.25
 _ZN5Exiv25MemIo6munmapEv@Base 0.25
 _ZN5Exiv25MemIo8transferERNS_7BasicIoE@Base 0.25
 _ZN5Exiv25MemIoC1EPKhl@Base 0.25
 _ZN5Exiv25MemIoC1Ev@Base 0.25
 _ZN5Exiv25MemIoC2EPKhl@Base 0.25
 _ZN5Exiv25MemIoC2Ev@Base 0.25
 _ZN5Exiv25MemIoD0Ev@Base 0.25
 _ZN5Exiv25MemIoD1Ev@Base 0.25
 _ZN5Exiv25MemIoD2Ev@Base 0.25
 _ZN5Exiv25Value11setDataAreaEPKhl@Base 0.25
 _ZN5Exiv25Value6createENS_6TypeIdE@Base 0.25
 _ZN5Exiv25ValueC1ENS_6TypeIdE@Base 0.25
 _ZN5Exiv25ValueC2ENS_6TypeIdE@Base 0.25
 _ZN5Exiv25ValueD0Ev@Base 0.25
 _ZN5Exiv25ValueD1Ev@Base 0.25
 _ZN5Exiv25ValueD2Ev@Base 0.25
 _ZN5Exiv25ValueaSERKS0_@Base 0.25
 _ZN5Exiv25isHexERKNSt7__cxx1112basic_stringIcSt11char_traitsIcESaIcEEEmS7_@Base 0.25
 _ZN5Exiv25modelERKNS_8ExifDataE@Base 0.25
 _ZN5Exiv26FileIo16populateFakeDataEv@Base 0.25
 _ZN5Exiv26FileIo4Impl10switchModeENS1_6OpModeE@Base 0.25
 _ZN5Exiv26FileIo4Impl13copyXattrFromERKS0_@Base 0.25
 _ZN5Exiv26FileIo4ImplC1ERKNSt7__cxx1112basic_stringIcSt11char_traitsIcESaIcEEE@Base 0.25
 _ZN5Exiv26FileIo4ImplC2ERKNSt7__cxx1112basic_stringIcSt11char_traitsIcESaIcEEE@Base 0.25
 _ZN5Exiv26FileIo4getbEv@Base 0.25
 _ZN5Exiv26FileIo4mmapEb@Base 0.25
 _ZN5Exiv26FileIo4openERKNSt7__cxx1112basic_stringIcSt11char_traitsIcESaIcEEE@Base 0.25
 _ZN5Exiv26FileIo4openEv@Base 0.25
 _ZN5Exiv26FileIo4putbEh@Base 0.25
 _ZN5Exiv26FileIo4readEPhl@Base 0.25
 _ZN5Exiv26FileIo4readEl@Base 0.25
 _ZN5Exiv26FileIo4seekElNS_7BasicIo8PositionE@Base 0.25
 _ZN5Exiv26FileIo5closeEv@Base 0.25
 _ZN5Exiv26FileIo5writeEPKhl@Base 0.25
 _ZN5Exiv26FileIo5writeERNS_7BasicIoE@Base 0.25
 _ZN5Exiv26FileIo6munmapEv@Base 0.25
 _ZN5Exiv26FileIo7setPathERKNSt7__cxx1112basic_stringIcSt11char_traitsIcESaIcEEE@Base 0.25
 _ZN5Exiv26FileIo8transferERNS_7BasicIoE@Base 0.25
 _ZN5Exiv26FileIoC1ERKNSt7__cxx1112basic_stringIcSt11char_traitsIcESaIcEEE@Base 0.25
 _ZN5Exiv26FileIoC2ERKNSt7__cxx1112basic_stringIcSt11char_traitsIcESaIcEEE@Base 0.25
 _ZN5Exiv26FileIoD0Ev@Base 0.25
 _ZN5Exiv26FileIoD1Ev@Base 0.25
 _ZN5Exiv26FileIoD2Ev@Base 0.25
 _ZN5Exiv26HttpIo8HttpImpl11writeRemoteEPKhmll@Base 0.25
 _ZN5Exiv26HttpIo8HttpImpl13getFileLengthEv@Base 0.25
 _ZN5Exiv26HttpIo8HttpImpl14getDataByRangeEllRNSt7__cxx1112basic_stringIcSt11char_traitsIcESaIcEEE@Base 0.25
 _ZN5Exiv26HttpIo8HttpImplC1ERKNSt7__cxx1112basic_stringIcSt11char_traitsIcESaIcEEEm@Base 0.25
 _ZN5Exiv26HttpIo8HttpImplC2ERKNSt7__cxx1112basic_stringIcSt11char_traitsIcESaIcEEEm@Base 0.25
 _ZN5Exiv26HttpIoC1ERKNSt7__cxx1112basic_stringIcSt11char_traitsIcESaIcEEEm@Base 0.25
 _ZN5Exiv26HttpIoC2ERKNSt7__cxx1112basic_stringIcSt11char_traitsIcESaIcEEEm@Base 0.25
 _ZN5Exiv26LogMsg14defaultHandlerEiPKc@Base 0.25
 _ZN5Exiv26LogMsg6level_E@Base 0.25
 _ZN5Exiv26LogMsg8handler_E@Base 0.25
 _ZN5Exiv26XmpKey4Impl11familyName_E@Base 0.25
 _ZN5Exiv26XmpKey4Impl12decomposeKeyERKNSt7__cxx1112basic_stringIcSt11char_traitsIcESaIcEEE@Base 0.25
 _ZN5Exiv26XmpKey4ImplC1ERKNSt7__cxx1112basic_stringIcSt11char_traitsIcESaIcEEES9_@Base 0.25
 _ZN5Exiv26XmpKey4ImplC2ERKNSt7__cxx1112basic_stringIcSt11char_traitsIcESaIcEEES9_@Base 0.25
 _ZN5Exiv26XmpKeyC1ERKNSt7__cxx1112basic_stringIcSt11char_traitsIcESaIcEEE@Base 0.25
 _ZN5Exiv26XmpKeyC1ERKNSt7__cxx1112basic_stringIcSt11char_traitsIcESaIcEEES8_@Base 0.25
 _ZN5Exiv26XmpKeyC1ERKS0_@Base 0.25
 _ZN5Exiv26XmpKeyC2ERKNSt7__cxx1112basic_stringIcSt11char_traitsIcESaIcEEE@Base 0.25
 _ZN5Exiv26XmpKeyC2ERKNSt7__cxx1112basic_stringIcSt11char_traitsIcESaIcEEES8_@Base 0.25
 _ZN5Exiv26XmpKeyC2ERKS0_@Base 0.25
 _ZN5Exiv26XmpKeyD0Ev@Base 0.25
 _ZN5Exiv26XmpKeyD1Ev@Base 0.25
 _ZN5Exiv26XmpKeyD2Ev@Base 0.25
 _ZN5Exiv26XmpKeyaSERKS0_@Base 0.25
 _ZN5Exiv26d2DataEPhdNS_9ByteOrderE@Base 0.25
 _ZN5Exiv26errMsgEi@Base 0.25
 _ZN5Exiv26f2DataEPhfNS_9ByteOrderE@Base 0.25
 _ZN5Exiv26getEnvB5cxx11ENS_5EnVarE@Base 0.25
 _ZN5Exiv26l2DataEPhiNS_9ByteOrderE@Base 0.25
 _ZN5Exiv26r2DataEPhSt4pairIiiENS_9ByteOrderE@Base 0.25
 _ZN5Exiv26s2DataEPhsNS_9ByteOrderE@Base 0.25
 _ZN5Exiv26to_hexEc@Base 0.25
 _ZN5Exiv27BasicIoD0Ev@Base 0.25
 _ZN5Exiv27BasicIoD1Ev@Base 0.25
 _ZN5Exiv27BasicIoD2Ev@Base 0.25
 _ZN5Exiv27DataBuf5allocEl@Base 0.25
 _ZN5Exiv27DataBuf5resetESt4pairIPhlE@Base 0.25
 _ZN5Exiv27DataBuf7releaseEv@Base 0.25
 _ZN5Exiv27DataBufC1EPKhl@Base 0.25
 _ZN5Exiv27DataBufC1ERS0_@Base 0.25
 _ZN5Exiv27DataBufC2EPKhl@Base 0.25
 _ZN5Exiv27DataBufC2ERS0_@Base 0.25
 _ZN5Exiv27DataBufaSERS0_@Base 0.25
 _ZN5Exiv27DataSetC1EtPKcS2_S2_bbjjNS_6TypeIdEtS2_@Base 0.25
 _ZN5Exiv27DataSetC2EtPKcS2_S2_bbjjNS_6TypeIdEtS2_@Base 0.25
 _ZN5Exiv27ExifKey4Impl11familyName_E@Base 0.25
 _ZN5Exiv27ExifKey4Impl12decomposeKeyERKNSt7__cxx1112basic_stringIcSt11char_traitsIcESaIcEEE@Base 0.25
 _ZN5Exiv27ExifKey4Impl7makeKeyEtNS_8Internal5IfdIdEPKNS_7TagInfoE@Base 0.25
 _ZN5Exiv27ExifKey4ImplC1Ev@Base 0.25
 _ZN5Exiv27ExifKey4ImplC2Ev@Base 0.25
 _ZN5Exiv27ExifKey6setIdxEi@Base 0.25
 _ZN5Exiv27ExifKeyC1ERKNS_7TagInfoE@Base 0.25
 _ZN5Exiv27ExifKeyC1ERKNSt7__cxx1112basic_stringIcSt11char_traitsIcESaIcEEE@Base 0.25
 _ZN5Exiv27ExifKeyC1ERKS0_@Base 0.25
 _ZN5Exiv27ExifKeyC1EtRKNSt7__cxx1112basic_stringIcSt11char_traitsIcESaIcEEE@Base 0.25
 _ZN5Exiv27ExifKeyC2ERKNS_7TagInfoE@Base 0.25
 _ZN5Exiv27ExifKeyC2ERKNSt7__cxx1112basic_stringIcSt11char_traitsIcESaIcEEE@Base 0.25
 _ZN5Exiv27ExifKeyC2ERKS0_@Base 0.25
 _ZN5Exiv27ExifKeyC2EtRKNSt7__cxx1112basic_stringIcSt11char_traitsIcESaIcEEE@Base 0.25
 _ZN5Exiv27ExifKeyD0Ev@Base 0.25
 _ZN5Exiv27ExifKeyD1Ev@Base 0.25
 _ZN5Exiv27ExifKeyD2Ev@Base 0.25
 _ZN5Exiv27ExifKeyaSERKS0_@Base 0.25
 _ZN5Exiv27IptcKey11familyName_E@Base 0.25
 _ZN5Exiv27IptcKey12decomposeKeyEv@Base 0.25
 _ZN5Exiv27IptcKey7makeKeyEv@Base 0.25
 _ZN5Exiv27IptcKeyC1ERKNSt7__cxx1112basic_stringIcSt11char_traitsIcESaIcEEE@Base 0.25
 _ZN5Exiv27IptcKeyC1ERKS0_@Base 0.25
 _ZN5Exiv27IptcKeyC1Ett@Base 0.25
 _ZN5Exiv27IptcKeyC2ERKNSt7__cxx1112basic_stringIcSt11char_traitsIcESaIcEEE@Base 0.25
 _ZN5Exiv27IptcKeyC2ERKS0_@Base 0.25
 _ZN5Exiv27IptcKeyC2Ett@Base 0.25
 _ZN5Exiv27IptcKeyD0Ev@Base 0.25
 _ZN5Exiv27IptcKeyD1Ev@Base 0.25
 _ZN5Exiv27IptcKeyD2Ev@Base 0.25
 _ZN5Exiv27IptcKeyaSERKS0_@Base 0.25
 _ZN5Exiv27TagInfoC1EtPKcS2_S2_iiNS_6TypeIdEsPFRSoS4_RKNS_5ValueEPKNS_8ExifDataEE@Base 0.25
 _ZN5Exiv27TagInfoC2EtPKcS2_S2_iiNS_6TypeIdEsPFRSoS4_RKNS_5ValueEPKNS_8ExifDataEE@Base 0.25
 _ZN5Exiv27XPathIo12GEN_FILE_EXTB5cxx11E@Base 0.25
 _ZN5Exiv27XPathIo13TEMP_FILE_EXTB5cxx11E@Base 0.25
 _ZN5Exiv27XPathIo15writeDataToFileERKNSt7__cxx1112basic_stringIcSt11char_traitsIcESaIcEEE@Base 0.25
 _ZN5Exiv27XPathIo8transferERNS_7BasicIoE@Base 0.25
 _ZN5Exiv27XPathIoC1ERKNSt7__cxx1112basic_stringIcSt11char_traitsIcESaIcEEE@Base 0.25
 _ZN5Exiv27XPathIoC2ERKNSt7__cxx1112basic_stringIcSt11char_traitsIcESaIcEEE@Base 0.25
 _ZN5Exiv27XPathIoD0Ev@Base 0.25
 _ZN5Exiv27XPathIoD1Ev@Base 0.25
 _ZN5Exiv27XPathIoD2Ev@Base 0.25
 _ZN5Exiv27XmpData3addERKNS_6XmpKeyEPKNS_5ValueE@Base 0.25
 _ZN5Exiv27XmpData3addERKNS_8XmpdatumE@Base 0.25
 _ZN5Exiv27XmpData3endEv@Base 0.25
 _ZN5Exiv27XmpData5beginEv@Base 0.25
 _ZN5Exiv27XmpData5clearEv@Base 0.25
 _ZN5Exiv27XmpData5eraseEN9__gnu_cxx17__normal_iteratorIPNS_8XmpdatumESt6vectorIS3_SaIS3_EEEE@Base 0.25
 _ZN5Exiv27XmpData7findKeyERKNS_6XmpKeyE@Base 0.25
 _ZN5Exiv27XmpData9sortByKeyEv@Base 0.25
 _ZN5Exiv27XmpDataixERKNSt7__cxx1112basic_stringIcSt11char_traitsIcESaIcEEE@Base 0.25
 _ZN5Exiv27afPointERKNS_8ExifDataE@Base 0.25
 _ZN5Exiv27fNumberERKNS_8ExifDataE@Base 0.25
 _ZN5Exiv27getLongEPKhNS_9ByteOrderE@Base 0.25
 _ZN5Exiv27hexdumpERSoPKhll@Base 0.25
 _ZN5Exiv27ul2DataEPhjNS_9ByteOrderE@Base 0.25
 _ZN5Exiv27ur2DataEPhSt4pairIjjENS_9ByteOrderE@Base 0.25
 _ZN5Exiv27us2DataEPhtNS_9ByteOrderE@Base 0.25
 _ZN5Exiv27versionEv@Base 0.25
 _ZN5Exiv28AnyErrorD0Ev@Base 0.25
 _ZN5Exiv28AnyErrorD1Ev@Base 0.25
 _ZN5Exiv28AnyErrorD2Ev@Base 0.25
 _ZN5Exiv28BmpImage10setCommentERKNSt7__cxx1112basic_stringIcSt11char_traitsIcESaIcEEE@Base 0.25
 _ZN5Exiv28BmpImage11setExifDataERKNS_8ExifDataE@Base 0.25
 _ZN5Exiv28BmpImage11setIptcDataERKNS_8IptcDataE@Base 0.25
 _ZN5Exiv28BmpImage12readMetadataEv@Base 0.25
 _ZN5Exiv28BmpImage13writeMetadataEv@Base 0.25
 _ZN5Exiv28BmpImageC1ESt8auto_ptrINS_7BasicIoEE@Base 0.25
 _ZN5Exiv28BmpImageC2ESt8auto_ptrINS_7BasicIoEE@Base 0.25
 _ZN5Exiv28Cr2Image10setCommentERKNSt7__cxx1112basic_stringIcSt11char_traitsIcESaIcEEE@Base 0.25
 _ZN5Exiv28Cr2Image12readMetadataEv@Base 0.25
 _ZN5Exiv28Cr2Image13writeMetadataEv@Base 0.25
 _ZN5Exiv28Cr2ImageC1ESt8auto_ptrINS_7BasicIoEEb@Base 0.25
 _ZN5Exiv28Cr2ImageC2ESt8auto_ptrINS_7BasicIoEEb@Base 0.25
 _ZN5Exiv28CrwImage11setIptcDataERKNS_8IptcDataE@Base 0.25
 _ZN5Exiv28CrwImage12readMetadataEv@Base 0.25
 _ZN5Exiv28CrwImage13writeMetadataEv@Base 0.25
 _ZN5Exiv28CrwImageC1ESt8auto_ptrINS_7BasicIoEEb@Base 0.25
 _ZN5Exiv28CrwImageC2ESt8auto_ptrINS_7BasicIoEEb@Base 0.25
 _ZN5Exiv28EpsImage10setCommentERKNSt7__cxx1112basic_stringIcSt11char_traitsIcESaIcEEE@Base 0.25
 _ZN5Exiv28EpsImage12readMetadataEv@Base 0.25
 _ZN5Exiv28EpsImage13writeMetadataEv@Base 0.25
 _ZN5Exiv28EpsImageC1ESt8auto_ptrINS_7BasicIoEEb@Base 0.25
 _ZN5Exiv28EpsImageC2ESt8auto_ptrINS_7BasicIoEEb@Base 0.25
 _ZN5Exiv28ExifData3addERKNS_7ExifKeyEPKNS_5ValueE@Base 0.25
 _ZN5Exiv28ExifData3addERKNS_9ExifdatumE@Base 0.25
 _ZN5Exiv28ExifData5clearEv@Base 0.25
 _ZN5Exiv28ExifData5eraseESt14_List_iteratorINS_9ExifdatumEE@Base 0.25
 _ZN5Exiv28ExifData5eraseESt14_List_iteratorINS_9ExifdatumEES3_@Base 0.25
 _ZN5Exiv28ExifData7findKeyERKNS_7ExifKeyE@Base 0.25
 _ZN5Exiv28ExifData9sortByKeyEv@Base 0.25
 _ZN5Exiv28ExifData9sortByTagEv@Base 0.25
 _ZN5Exiv28ExifDataixERKNSt7__cxx1112basic_stringIcSt11char_traitsIcESaIcEEE@Base 0.25
 _ZN5Exiv28ExifTags11isExifGroupERKNSt7__cxx1112basic_stringIcSt11char_traitsIcESaIcEEE@Base 0.25
 _ZN5Exiv28ExifTags11sectionNameERKNS_7ExifKeyE@Base 0.25
 _ZN5Exiv28ExifTags12defaultCountERKNS_7ExifKeyE@Base 0.25
 _ZN5Exiv28ExifTags12isMakerGroupERKNSt7__cxx1112basic_stringIcSt11char_traitsIcESaIcEEE@Base 0.25
 _ZN5Exiv28ExifTags7ifdNameERKNSt7__cxx1112basic_stringIcSt11char_traitsIcESaIcEEE@Base 0.25
 _ZN5Exiv28ExifTags7tagListERKNSt7__cxx1112basic_stringIcSt11char_traitsIcESaIcEEE@Base 0.25
 _ZN5Exiv28ExifTags7taglistERSo@Base 0.25
 _ZN5Exiv28ExifTags7taglistERSoRKNSt7__cxx1112basic_stringIcSt11char_traitsIcESaIcEEE@Base 0.25
 _ZN5Exiv28ExifTags9groupListEv@Base 0.25
 _ZN5Exiv28ExvImage6blank_E@Base 0.25
 _ZN5Exiv28ExvImage8exiv2Id_E@Base 0.25
 _ZN5Exiv28ExvImageC1ESt8auto_ptrINS_7BasicIoEEb@Base 0.25
 _ZN5Exiv28ExvImageC2ESt8auto_ptrINS_7BasicIoEEb@Base 0.25
 _ZN5Exiv28GifImage10setCommentERKNSt7__cxx1112basic_stringIcSt11char_traitsIcESaIcEEE@Base 0.25
 _ZN5Exiv28GifImage11setExifDataERKNS_8ExifDataE@Base 0.25
 _ZN5Exiv28GifImage11setIptcDataERKNS_8IptcDataE@Base 0.25
 _ZN5Exiv28GifImage12readMetadataEv@Base 0.25
 _ZN5Exiv28GifImage13writeMetadataEv@Base 0.25
 _ZN5Exiv28GifImageC1ESt8auto_ptrINS_7BasicIoEE@Base 0.25
 _ZN5Exiv28GifImageC2ESt8auto_ptrINS_7BasicIoEE@Base 0.25
 _ZN5Exiv28IptcData3addERKNS_7IptcKeyEPNS_5ValueE@Base 0.25
 _ZN5Exiv28IptcData3addERKNS_9IptcdatumE@Base 0.25
 _ZN5Exiv28IptcData5eraseEN9__gnu_cxx17__normal_iteratorIPNS_9IptcdatumESt6vectorIS3_SaIS3_EEEE@Base 0.25
 _ZN5Exiv28IptcData6findIdEtt@Base 0.25
 _ZN5Exiv28IptcData7findKeyERKNS_7IptcKeyE@Base 0.25
 _ZN5Exiv28IptcData9sortByKeyEv@Base 0.25
 _ZN5Exiv28IptcData9sortByTagEv@Base 0.25
 _ZN5Exiv28IptcDataixERKNSt7__cxx1112basic_stringIcSt11char_traitsIcESaIcEEE@Base 0.25
 _ZN5Exiv28Jp2Image10setCommentERKNSt7__cxx1112basic_stringIcSt11char_traitsIcESaIcEEE@Base 0.25
 _ZN5Exiv28Jp2Image12readMetadataEv@Base 0.25
 _ZN5Exiv28Jp2Image13writeMetadataEv@Base 0.25
 _ZN5Exiv28Jp2ImageC1ESt8auto_ptrINS_7BasicIoEEb@Base 0.25
 _ZN5Exiv28Jp2ImageC2ESt8auto_ptrINS_7BasicIoEEb@Base 0.25
 _ZN5Exiv28JpegBase12readMetadataEv@Base 0.25
 _ZN5Exiv28JpegBase13writeMetadataEv@Base 0.25
 _ZN5Exiv28JpegBase14printStructureERSoNS_20PrintStructureOptionE@Base 0.25
 _ZN5Exiv28JpegBase4com_E@Base 0.25
 _ZN5Exiv28JpegBase4dht_E@Base 0.25
 _ZN5Exiv28JpegBase4dqt_E@Base 0.25
 _ZN5Exiv28JpegBase4dri_E@Base 0.25
 _ZN5Exiv28JpegBase4eoi_E@Base 0.25
 _ZN5Exiv28JpegBase4sos_E@Base 0.25
 _ZN5Exiv28JpegBase5app0_E@Base 0.25
 _ZN5Exiv28JpegBase5app1_E@Base 0.25
 _ZN5Exiv28JpegBase5sof0_E@Base 0.25
 _ZN5Exiv28JpegBase5sof1_E@Base 0.25
 _ZN5Exiv28JpegBase5sof2_E@Base 0.25
 _ZN5Exiv28JpegBase5sof3_E@Base 0.25
 _ZN5Exiv28JpegBase5sof5_E@Base 0.25
 _ZN5Exiv28JpegBase5sof6_E@Base 0.25
 _ZN5Exiv28JpegBase5sof7_E@Base 0.25
 _ZN5Exiv28JpegBase5sof9_E@Base 0.25
 _ZN5Exiv28JpegBase6app13_E@Base 0.25
 _ZN5Exiv28JpegBase6sof10_E@Base 0.25
 _ZN5Exiv28JpegBase6sof11_E@Base 0.25
 _ZN5Exiv28JpegBase6sof13_E@Base 0.25
 _ZN5Exiv28JpegBase6sof14_E@Base 0.25
 _ZN5Exiv28JpegBase6sof15_E@Base 0.25
 _ZN5Exiv28JpegBase6xmpId_E@Base 0.25
 _ZN5Exiv28JpegBase7exifId_E@Base 0.25
 _ZN5Exiv28JpegBase7jfifId_E@Base 0.25
 _ZN5Exiv28JpegBaseC1EiSt8auto_ptrINS_7BasicIoEEbPKhl@Base 0.25
 _ZN5Exiv28JpegBaseC2EiSt8auto_ptrINS_7BasicIoEEbPKhl@Base 0.25
 _ZN5Exiv28MrwImage10setCommentERKNSt7__cxx1112basic_stringIcSt11char_traitsIcESaIcEEE@Base 0.25
 _ZN5Exiv28MrwImage11setExifDataERKNS_8ExifDataE@Base 0.25
 _ZN5Exiv28MrwImage11setIptcDataERKNS_8IptcDataE@Base 0.25
 _ZN5Exiv28MrwImage12readMetadataEv@Base 0.25
 _ZN5Exiv28MrwImage13writeMetadataEv@Base 0.25
 _ZN5Exiv28MrwImageC1ESt8auto_ptrINS_7BasicIoEEb@Base 0.25
 _ZN5Exiv28MrwImageC2ESt8auto_ptrINS_7BasicIoEEb@Base 0.25
 _ZN5Exiv28OrfImage10setCommentERKNSt7__cxx1112basic_stringIcSt11char_traitsIcESaIcEEE@Base 0.25
 _ZN5Exiv28OrfImage12readMetadataEv@Base 0.25
 _ZN5Exiv28OrfImage13writeMetadataEv@Base 0.25
 _ZN5Exiv28OrfImageC1ESt8auto_ptrINS_7BasicIoEEb@Base 0.25
 _ZN5Exiv28OrfImageC2ESt8auto_ptrINS_7BasicIoEEb@Base 0.25
 _ZN5Exiv28PgfImage12readMetadataEv@Base 0.25
 _ZN5Exiv28PgfImage13writeMetadataEv@Base 0.25
 _ZN5Exiv28PgfImage17readPgfHeaderSizeERNS_7BasicIoE@Base 0.25
 _ZN5Exiv28PgfImage18readPgfMagicNumberERNS_7BasicIoE@Base 0.25
 _ZN5Exiv28PgfImage22readPgfHeaderStructureERNS_7BasicIoEPiS3_@Base 0.25
 _ZN5Exiv28PgfImageC1ESt8auto_ptrINS_7BasicIoEEb@Base 0.25
 _ZN5Exiv28PgfImageC2ESt8auto_ptrINS_7BasicIoEEb@Base 0.25
 _ZN5Exiv28PngImage12readMetadataEv@Base 0.25
 _ZN5Exiv28PngImage13writeMetadataEv@Base 0.25
 _ZN5Exiv28PngImage14printStructureERSoNS_20PrintStructureOptionE@Base 0.25
 _ZN5Exiv28PngImageC1ESt8auto_ptrINS_7BasicIoEEb@Base 0.25
 _ZN5Exiv28PngImageC2ESt8auto_ptrINS_7BasicIoEEb@Base 0.25
 _ZN5Exiv28PsdImage10setCommentERKNSt7__cxx1112basic_stringIcSt11char_traitsIcESaIcEEE@Base 0.25
 _ZN5Exiv28PsdImage12readMetadataEv@Base 0.25
 _ZN5Exiv28PsdImage13writeMetadataEv@Base 0.25
 _ZN5Exiv28PsdImageC1ESt8auto_ptrINS_7BasicIoEE@Base 0.25
 _ZN5Exiv28PsdImageC2ESt8auto_ptrINS_7BasicIoEE@Base 0.25
 _ZN5Exiv28RafImage10setCommentERKNSt7__cxx1112basic_stringIcSt11char_traitsIcESaIcEEE@Base 0.25
 _ZN5Exiv28RafImage11setExifDataERKNS_8ExifDataE@Base 0.25
 _ZN5Exiv28RafImage11setIptcDataERKNS_8IptcDataE@Base 0.25
 _ZN5Exiv28RafImage12readMetadataEv@Base 0.25
 _ZN5Exiv28RafImage13writeMetadataEv@Base 0.25
 _ZN5Exiv28RafImageC1ESt8auto_ptrINS_7BasicIoEEb@Base 0.25
 _ZN5Exiv28RafImageC2ESt8auto_ptrINS_7BasicIoEEb@Base 0.25
 _ZN5Exiv28RemoteIo16populateFakeDataEv@Base 0.25
 _ZN5Exiv28RemoteIo4Impl14populateBlocksEmm@Base 0.25
 _ZN5Exiv28RemoteIo4ImplC1ERKNSt7__cxx1112basic_stringIcSt11char_traitsIcESaIcEEEm@Base 0.25
 _ZN5Exiv28RemoteIo4ImplC2ERKNSt7__cxx1112basic_stringIcSt11char_traitsIcESaIcEEEm@Base 0.25
 _ZN5Exiv28RemoteIo4ImplD0Ev@Base 0.25
 _ZN5Exiv28RemoteIo4ImplD1Ev@Base 0.25
 _ZN5Exiv28RemoteIo4ImplD2Ev@Base 0.25
 _ZN5Exiv28RemoteIo4getbEv@Base 0.25
 _ZN5Exiv28RemoteIo4mmapEb@Base 0.25
 _ZN5Exiv28RemoteIo4openEv@Base 0.25
 _ZN5Exiv28RemoteIo4putbEh@Base 0.25
 _ZN5Exiv28RemoteIo4readEPhl@Base 0.25
 _ZN5Exiv28RemoteIo4readEl@Base 0.25
 _ZN5Exiv28RemoteIo4seekElNS_7BasicIo8PositionE@Base 0.25
 _ZN5Exiv28RemoteIo5closeEv@Base 0.25
 _ZN5Exiv28RemoteIo5writeEPKhl@Base 0.25
 _ZN5Exiv28RemoteIo5writeERNS_7BasicIoE@Base 0.25
 _ZN5Exiv28RemoteIo6munmapEv@Base 0.25
 _ZN5Exiv28RemoteIo8transferERNS_7BasicIoE@Base 0.25
 _ZN5Exiv28RemoteIoD0Ev@Base 0.25
 _ZN5Exiv28RemoteIoD1Ev@Base 0.25
 _ZN5Exiv28RemoteIoD2Ev@Base 0.25
 _ZN5Exiv28Rw2Image10setCommentERKNSt7__cxx1112basic_stringIcSt11char_traitsIcESaIcEEE@Base 0.25
 _ZN5Exiv28Rw2Image11setExifDataERKNS_8ExifDataE@Base 0.25
 _ZN5Exiv28Rw2Image11setIptcDataERKNS_8IptcDataE@Base 0.25
 _ZN5Exiv28Rw2Image12readMetadataEv@Base 0.25
 _ZN5Exiv28Rw2Image13writeMetadataEv@Base 0.25
 _ZN5Exiv28Rw2ImageC1ESt8auto_ptrINS_7BasicIoEE@Base 0.25
 _ZN5Exiv28Rw2ImageC2ESt8auto_ptrINS_7BasicIoEE@Base 0.25
 _ZN5Exiv28TgaImage10setCommentERKNSt7__cxx1112basic_stringIcSt11char_traitsIcESaIcEEE@Base 0.25
 _ZN5Exiv28TgaImage11setExifDataERKNS_8ExifDataE@Base 0.25
 _ZN5Exiv28TgaImage11setIptcDataERKNS_8IptcDataE@Base 0.25
 _ZN5Exiv28TgaImage12readMetadataEv@Base 0.25
 _ZN5Exiv28TgaImage13writeMetadataEv@Base 0.25
 _ZN5Exiv28TgaImageC1ESt8auto_ptrINS_7BasicIoEE@Base 0.25
 _ZN5Exiv28TgaImageC2ESt8auto_ptrINS_7BasicIoEE@Base 0.25
 _ZN5Exiv28TypeInfo6typeIdERKNSt7__cxx1112basic_stringIcSt11char_traitsIcESaIcEEE@Base 0.25
 _ZN5Exiv28TypeInfo8typeNameENS_6TypeIdE@Base 0.25
 _ZN5Exiv28TypeInfo8typeSizeENS_6TypeIdE@Base 0.25
 _ZN5Exiv28XmpValue12setXmpStructENS0_9XmpStructE@Base 0.25
 _ZN5Exiv28XmpValue12xmpArrayTypeENS_6TypeIdE@Base 0.25
 _ZN5Exiv28XmpValue15setXmpArrayTypeENS0_12XmpArrayTypeE@Base 0.25
 _ZN5Exiv28XmpValue4readEPKhlNS_9ByteOrderE@Base 0.25
 _ZN5Exiv28XmpValueC1ENS_6TypeIdE@Base 0.25
 _ZN5Exiv28XmpValueC2ENS_6TypeIdE@Base 0.25
 _ZN5Exiv28XmpValueaSERKS0_@Base 0.25
 _ZN5Exiv28Xmpdatum4ImplC1ERKNS_6XmpKeyEPKNS_5ValueE@Base 0.25
 _ZN5Exiv28Xmpdatum4ImplC1ERKS1_@Base 0.25
 _ZN5Exiv28Xmpdatum4ImplC2ERKNS_6XmpKeyEPKNS_5ValueE@Base 0.25
 _ZN5Exiv28Xmpdatum4ImplC2ERKS1_@Base 0.25
 _ZN5Exiv28Xmpdatum4ImplaSERKS1_@Base 0.25
 _ZN5Exiv28Xmpdatum8setValueEPKNS_5ValueE@Base 0.25
 _ZN5Exiv28Xmpdatum8setValueERKNSt7__cxx1112basic_stringIcSt11char_traitsIcESaIcEEE@Base 0.25
 _ZN5Exiv28XmpdatumC1ERKNS_6XmpKeyEPKNS_5ValueE@Base 0.25
 _ZN5Exiv28XmpdatumC1ERKS0_@Base 0.25
 _ZN5Exiv28XmpdatumC2ERKNS_6XmpKeyEPKNS_5ValueE@Base 0.25
 _ZN5Exiv28XmpdatumC2ERKS0_@Base 0.25
 _ZN5Exiv28XmpdatumD0Ev@Base 0.25
 _ZN5Exiv28XmpdatumD1Ev@Base 0.25
 _ZN5Exiv28XmpdatumD2Ev@Base 0.25
 _ZN5Exiv28XmpdatumaSERKNS_5ValueE@Base 0.25
 _ZN5Exiv28XmpdatumaSERKNSt7__cxx1112basic_stringIcSt11char_traitsIcESaIcEEE@Base 0.25
 _ZN5Exiv28XmpdatumaSERKS0_@Base 0.25
 _ZN5Exiv28XmpdatumaSIiEERS0_RKT_@Base 0.25
 _ZN5Exiv28contrastERKNS_8ExifDataE@Base 0.25
 _ZN5Exiv28exifTimeEPKcP2tm@Base 0.25
 _ZN5Exiv28from_hexEc@Base 0.25
 _ZN5Exiv28getFloatEPKhNS_9ByteOrderE@Base 0.25
 _ZN5Exiv28getShortEPKhNS_9ByteOrderE@Base 0.25
 _ZN5Exiv28getULongEPKhNS_9ByteOrderE@Base 0.25
 _ZN5Exiv28isoSpeedERKNS_8ExifDataE@Base 0.25
 _ZN5Exiv28lensNameERKNS_8ExifDataE@Base 0.25
 _ZN5Exiv28readFileERKNSt7__cxx1112basic_stringIcSt11char_traitsIcESaIcEEE@Base 0.25
 _ZN5Exiv28strErrorB5cxx11Ev@Base 0.25
 _ZN5Exiv29Cr2Parser6decodeERNS_8ExifDataERNS_8IptcDataERNS_7XmpDataEPKhj@Base 0.25
 _ZN5Exiv29Cr2Parser6encodeERNS_7BasicIoEPKhjNS_9ByteOrderERKNS_8ExifDataERKNS_8IptcDataERKNS_7XmpDataE@Base 0.25
 _ZN5Exiv29CrwParser6decodeEPNS_8CrwImageEPKhj@Base 0.25
 _ZN5Exiv29CrwParser6encodeERSt6vectorIhSaIhEEPKhjPKNS_8CrwImageE@Base 0.25
 _ZN5Exiv29DataValue4readEPKhlNS_9ByteOrderE@Base 0.25
 _ZN5Exiv29DataValue4readERKNSt7__cxx1112basic_stringIcSt11char_traitsIcESaIcEEE@Base 0.25
 _ZN5Exiv29DataValueC1ENS_6TypeIdE@Base 0.25
 _ZN5Exiv29DataValueC1EPKhlNS_9ByteOrderENS_6TypeIdE@Base 0.25
 _ZN5Exiv29DataValueC2ENS_6TypeIdE@Base 0.25
 _ZN5Exiv29DataValueC2EPKhlNS_9ByteOrderENS_6TypeIdE@Base 0.25
 _ZN5Exiv29DataValueD0Ev@Base 0.25
 _ZN5Exiv29DataValueD1Ev@Base 0.25
 _ZN5Exiv29DataValueD2Ev@Base 0.25
 _ZN5Exiv29DateValue4readEPKhlNS_9ByteOrderE@Base 0.25
 _ZN5Exiv29DateValue4readERKNSt7__cxx1112basic_stringIcSt11char_traitsIcESaIcEEE@Base 0.25
 _ZN5Exiv29DateValue7setDateERKNS0_4DateE@Base 0.25
 _ZN5Exiv29DateValueC1Eiii@Base 0.25
 _ZN5Exiv29DateValueC1Ev@Base 0.25
 _ZN5Exiv29DateValueC2Eiii@Base 0.25
 _ZN5Exiv29DateValueC2Ev@Base 0.25
 _ZN5Exiv29DateValueD0Ev@Base 0.25
 _ZN5Exiv29DateValueD1Ev@Base 0.25
 _ZN5Exiv29DateValueD2Ev@Base 0.25
 _ZN5Exiv29ExifThumb16setJpegThumbnailEPKhl@Base 0.25
 _ZN5Exiv29ExifThumb16setJpegThumbnailEPKhlSt4pairIjjES4_t@Base 0.25
 _ZN5Exiv29ExifThumb16setJpegThumbnailERKNSt7__cxx1112basic_stringIcSt11char_traitsIcESaIcEEE@Base 0.25
 _ZN5Exiv29ExifThumb16setJpegThumbnailERKNSt7__cxx1112basic_stringIcSt11char_traitsIcESaIcEEESt4pairIjjESA_t@Base 0.25
 _ZN5Exiv29ExifThumb5eraseEv@Base 0.25
 _ZN5Exiv29ExifThumbC1ERNS_8ExifDataE@Base 0.25
 _ZN5Exiv29ExifThumbC2ERNS_8ExifDataE@Base 0.25
 _ZN5Exiv29Exifdatum11setDataAreaEPKhl@Base 0.25
 _ZN5Exiv29Exifdatum8setValueEPKNS_5ValueE@Base 0.25
 _ZN5Exiv29Exifdatum8setValueERKNSt7__cxx1112basic_stringIcSt11char_traitsIcESaIcEEE@Base 0.25
 _ZN5Exiv29ExifdatumC1ERKNS_7ExifKeyEPKNS_5ValueE@Base 0.25
 _ZN5Exiv29ExifdatumC1ERKS0_@Base 0.25
 _ZN5Exiv29ExifdatumC2ERKNS_7ExifKeyEPKNS_5ValueE@Base 0.25
 _ZN5Exiv29ExifdatumC2ERKS0_@Base 0.25
 _ZN5Exiv29ExifdatumD0Ev@Base 0.25
 _ZN5Exiv29ExifdatumD1Ev@Base 0.25
 _ZN5Exiv29ExifdatumD2Ev@Base 0.25
 _ZN5Exiv29ExifdatumaSERKNS_5ValueE@Base 0.25
 _ZN5Exiv29ExifdatumaSERKNSt7__cxx1112basic_stringIcSt11char_traitsIcESaIcEEE@Base 0.25
 _ZN5Exiv29ExifdatumaSERKS0_@Base 0.25
 _ZN5Exiv29ExifdatumaSERKSt4pairIiiE@Base 0.25
 _ZN5Exiv29ExifdatumaSERKSt4pairIjjE@Base 0.25
 _ZN5Exiv29ExifdatumaSERKi@Base 0.25
 _ZN5Exiv29ExifdatumaSERKj@Base 0.25
 _ZN5Exiv29ExifdatumaSERKs@Base 0.25
 _ZN5Exiv29ExifdatumaSERKt@Base 0.25
 _ZN5Exiv29GroupInfo9GroupNameC1ERKNSt7__cxx1112basic_stringIcSt11char_traitsIcESaIcEEE@Base 0.25
 _ZN5Exiv29GroupInfo9GroupNameC2ERKNSt7__cxx1112basic_stringIcSt11char_traitsIcESaIcEEE@Base 0.25
 _ZN5Exiv29Iptcdatum8setValueEPKNS_5ValueE@Base 0.25
 _ZN5Exiv29Iptcdatum8setValueERKNSt7__cxx1112basic_stringIcSt11char_traitsIcESaIcEEE@Base 0.25
 _ZN5Exiv29IptcdatumC1ERKNS_7IptcKeyEPKNS_5ValueE@Base 0.25
 _ZN5Exiv29IptcdatumC1ERKS0_@Base 0.25
 _ZN5Exiv29IptcdatumC2ERKNS_7IptcKeyEPKNS_5ValueE@Base 0.25
 _ZN5Exiv29IptcdatumC2ERKS0_@Base 0.25
 _ZN5Exiv29IptcdatumD0Ev@Base 0.25
 _ZN5Exiv29IptcdatumD1Ev@Base 0.25
 _ZN5Exiv29IptcdatumD2Ev@Base 0.25
 _ZN5Exiv29IptcdatumaSERKNS_5ValueE@Base 0.25
 _ZN5Exiv29IptcdatumaSERKNSt7__cxx1112basic_stringIcSt11char_traitsIcESaIcEEE@Base 0.25
 _ZN5Exiv29IptcdatumaSERKS0_@Base 0.25
 _ZN5Exiv29IptcdatumaSERKt@Base 0.25
 _ZN5Exiv29JpegImage4soi_E@Base 0.25
 _ZN5Exiv29JpegImage6blank_E@Base 0.25
 _ZN5Exiv29JpegImageC1ESt8auto_ptrINS_7BasicIoEEb@Base 0.25
 _ZN5Exiv29JpegImageC2ESt8auto_ptrINS_7BasicIoEEb@Base 0.25
 _ZN5Exiv29MetadatumC1ERKS0_@Base 0.25
 _ZN5Exiv29MetadatumC1Ev@Base 0.25
 _ZN5Exiv29MetadatumC2ERKS0_@Base 0.25
 _ZN5Exiv29MetadatumC2Ev@Base 0.25
 _ZN5Exiv29MetadatumD0Ev@Base 0.25
 _ZN5Exiv29MetadatumD1Ev@Base 0.25
 _ZN5Exiv29MetadatumD2Ev@Base 0.25
 _ZN5Exiv29MetadatumaSERKS0_@Base 0.25
 _ZN5Exiv29OrfParser6decodeERNS_8ExifDataERNS_8IptcDataERNS_7XmpDataEPKhj@Base 0.25
 _ZN5Exiv29OrfParser6encodeERNS_7BasicIoEPKhjNS_9ByteOrderERKNS_8ExifDataERKNS_8IptcDataERKNS_7XmpDataE@Base 0.25
 _ZN5Exiv29Photoshop10setIptcIrbEPKhlRKNS_8IptcDataE@Base 0.25
 _ZN5Exiv29Photoshop13locateIptcIrbEPKhlPS2_PjS4_@Base 0.25
 _ZN5Exiv29Photoshop16locatePreviewIrbEPKhlPS2_PjS4_@Base 0.25
 _ZN5Exiv29Photoshop5iptc_E@Base 0.25
 _ZN5Exiv29Photoshop5isIrbEPKhl@Base 0.25
 _ZN5Exiv29Photoshop5validEPKhl@Base 0.25
 _ZN5Exiv29Photoshop6bimId_E@Base 0.25
 _ZN5Exiv29Photoshop6irbId_E@Base 0.25
 _ZN5Exiv29Photoshop6ps3Id_E@Base 0.25
 _ZN5Exiv29Photoshop8preview_E@Base 0.25
 _ZN5Exiv29Photoshop9locateIrbEPKhltPS2_PjS4_@Base 0.25
 _ZN5Exiv29Rw2Parser6decodeERNS_8ExifDataERNS_8IptcDataERNS_7XmpDataEPKhj@Base 0.25
 _ZN5Exiv29TiffImage10setCommentERKNSt7__cxx1112basic_stringIcSt11char_traitsIcESaIcEEE@Base 0.25
 _ZN5Exiv29TiffImage12readMetadataEv@Base 0.25
 _ZN5Exiv29TiffImage13writeMetadataEv@Base 0.25
 _ZN5Exiv29TiffImage14printStructureERSoNS_20PrintStructureOptionE@Base 0.25
 _ZN5Exiv29TiffImageC1ESt8auto_ptrINS_7BasicIoEEb@Base 0.25
 _ZN5Exiv29TiffImageC2ESt8auto_ptrINS_7BasicIoEEb@Base 0.25
 _ZN5Exiv29TimeValue4readEPKhlNS_9ByteOrderE@Base 0.25
 _ZN5Exiv29TimeValue4readERKNSt7__cxx1112basic_stringIcSt11char_traitsIcESaIcEEE@Base 0.25
 _ZN5Exiv29TimeValue7setTimeERKNS0_4TimeE@Base 0.25
 _ZN5Exiv29TimeValueC1Eiiiii@Base 0.25
 _ZN5Exiv29TimeValueC1Ev@Base 0.25
 _ZN5Exiv29TimeValueC2Eiiiii@Base 0.25
 _ZN5Exiv29TimeValueC2Ev@Base 0.25
 _ZN5Exiv29TimeValueD0Ev@Base 0.25
 _ZN5Exiv29TimeValueD1Ev@Base 0.25
 _ZN5Exiv29TimeValueD2Ev@Base 0.25
 _ZN5Exiv29XmpNsInfo2NsC1ERKNSt7__cxx1112basic_stringIcSt11char_traitsIcESaIcEEE@Base 0.25
 _ZN5Exiv29XmpNsInfo2NsC2ERKNSt7__cxx1112basic_stringIcSt11char_traitsIcESaIcEEE@Base 0.25
 _ZN5Exiv29XmpNsInfo6PrefixC1ERKNSt7__cxx1112basic_stringIcSt11char_traitsIcESaIcEEE@Base 0.25
 _ZN5Exiv29XmpNsInfo6PrefixC2ERKNSt7__cxx1112basic_stringIcSt11char_traitsIcESaIcEEE@Base 0.25
 _ZN5Exiv29XmpParser10initializeEPFvPvbES1_@Base 0.25
 _ZN5Exiv29XmpParser10pLockData_E@Base 0.25
 _ZN5Exiv29XmpParser10registerNsERKNSt7__cxx1112basic_stringIcSt11char_traitsIcESaIcEEES8_@Base 0.25
 _ZN5Exiv29XmpParser11xmpLockFct_E@Base 0.25
 _ZN5Exiv29XmpParser12initialized_E@Base 0.25
 _ZN5Exiv29XmpParser12unregisterNsERKNSt7__cxx1112basic_stringIcSt11char_traitsIcESaIcEEE@Base 0.25
 _ZN5Exiv29XmpParser6decodeERNS_7XmpDataERKNSt7__cxx1112basic_stringIcSt11char_traitsIcESaIcEEE@Base 0.25
 _ZN5Exiv29XmpParser6encodeERNSt7__cxx1112basic_stringIcSt11char_traitsIcESaIcEEERKNS_7XmpDataEtj@Base 0.25
 _ZN5Exiv29XmpParser9terminateEv@Base 0.25
 _ZN5Exiv29flashBiasERKNS_8ExifDataE@Base 0.25
 _ZN5Exiv29getDoubleEPKhNS_9ByteOrderE@Base 0.25
 _ZN5Exiv29getUShortEPKhNS_9ByteOrderE@Base 0.25
 _ZN5Exiv29isBmpTypeERNS_7BasicIoEb@Base 0.25
 _ZN5Exiv29isCr2TypeERNS_7BasicIoEb@Base 0.25
 _ZN5Exiv29isCrwTypeERNS_7BasicIoEb@Base 0.25
 _ZN5Exiv29isEpsTypeERNS_7BasicIoEb@Base 0.25
 _ZN5Exiv29isExvTypeERNS_7BasicIoEb@Base 0.25
 _ZN5Exiv29isGifTypeERNS_7BasicIoEb@Base 0.25
 _ZN5Exiv29isJp2TypeERNS_7BasicIoEb@Base 0.25
 _ZN5Exiv29isMrwTypeERNS_7BasicIoEb@Base 0.25
 _ZN5Exiv29isOrfTypeERNS_7BasicIoEb@Base 0.25
 _ZN5Exiv29isPgfTypeERNS_7BasicIoEb@Base 0.25
 _ZN5Exiv29isPngTypeERNS_7BasicIoEb@Base 0.25
 _ZN5Exiv29isPsdTypeERNS_7BasicIoEb@Base 0.25
 _ZN5Exiv29isRafTypeERNS_7BasicIoEb@Base 0.25
 _ZN5Exiv29isRw2TypeERNS_7BasicIoEb@Base 0.25
 _ZN5Exiv29isTgaTypeERNS_7BasicIoEb@Base 0.25
 _ZN5Exiv29isXmpTypeERNS_7BasicIoEb@Base 0.25
 _ZN5Exiv29macroModeERKNS_8ExifDataE@Base 0.25
 _ZN5Exiv29parseLongERKNSt7__cxx1112basic_stringIcSt11char_traitsIcESaIcEEERb@Base 0.25
 _ZN5Exiv29sceneModeERKNS_8ExifDataE@Base 0.25
 _ZN5Exiv29sharpnessERKNS_8ExifDataE@Base 0.25
 _ZN5Exiv29urldecodeEPKc@Base 0.25
 _ZN5Exiv29urldecodeERNSt7__cxx1112basic_stringIcSt11char_traitsIcESaIcEEE@Base 0.25
 _ZN5Exiv29urlencodeEPc@Base 0.25
 _ZN5Exiv29writeFileERKNS_7DataBufERKNSt7__cxx1112basic_stringIcSt11char_traitsIcESaIcEEE@Base 0.25
 _ZN5Exiv2lsERSoRKNS_15XmpPropertyInfoE@Base 0.25
 _ZN5Exiv2lsERSoRKNS_7DataSetE@Base 0.25
 _ZN5Exiv2lsERSoRKNS_7TagInfoE@Base 0.25
 _ZN5Exiv2lsERSoRKSt4pairIiiE@Base 0.25
 _ZN5Exiv2lsERSoRKSt4pairIjjE@Base 0.25
 _ZN5Exiv2rsERSiRSt4pairIiiE@Base 0.25
 _ZN5Exiv2rsERSiRSt4pairIjjE@Base 0.25
 _ZNK5Exiv210AsciiValue5writeERSo@Base 0.25
 _ZNK5Exiv210ExifThumbC4copyEv@Base 0.25
 _ZNK5Exiv210ExifThumbC8mimeTypeEv@Base 0.25
 _ZNK5Exiv210ExifThumbC9extensionEv@Base 0.25
 _ZNK5Exiv210ExifThumbC9writeFileERKNSt7__cxx1112basic_stringIcSt11char_traitsIcESaIcEEE@Base 0.25
 _ZNK5Exiv210XmpSidecar8mimeTypeB5cxx11Ev@Base 0.25
 _ZNK5Exiv212CommentValue13detectCharsetERNSt7__cxx1112basic_stringIcSt11char_traitsIcESaIcEEE@Base 0.25
 _ZNK5Exiv212CommentValue4copyEPhNS_9ByteOrderE@Base 0.25
 _ZNK5Exiv212CommentValue5writeERSo@Base 0.25
 _ZNK5Exiv212CommentValue7commentB5cxx11EPKc@Base 0.25
 _ZNK5Exiv212CommentValue9charsetIdEv@Base 0.25
 _ZNK5Exiv212LangAltValue10toRationalEl@Base 0.25
 _ZNK5Exiv212LangAltValue5cloneEv@Base 0.25
 _ZNK5Exiv212LangAltValue5countEv@Base 0.25
 _ZNK5Exiv212LangAltValue5writeERSo@Base 0.25
 _ZNK5Exiv212LangAltValue6toLongEl@Base 0.25
 _ZNK5Exiv212LangAltValue7toFloatEl@Base 0.25
 _ZNK5Exiv212LangAltValue8toStringB5cxx11El@Base 0.25
 _ZNK5Exiv212LangAltValue8toStringERKNSt7__cxx1112basic_stringIcSt11char_traitsIcESaIcEEE@Base 0.25
 _ZNK5Exiv212PreviewImage2idEv@Base 0.25
 _ZNK5Exiv212PreviewImage4copyEv@Base 0.25
 _ZNK5Exiv212PreviewImage4sizeEv@Base 0.25
 _ZNK5Exiv212PreviewImage5pDataEv@Base 0.25
 _ZNK5Exiv212PreviewImage5widthEv@Base 0.25
 _ZNK5Exiv212PreviewImage6heightEv@Base 0.25
 _ZNK5Exiv212PreviewImage8mimeTypeB5cxx11Ev@Base 0.25
 _ZNK5Exiv212PreviewImage9extensionB5cxx11Ev@Base 0.25
 _ZNK5Exiv212PreviewImage9writeFileERKNSt7__cxx1112basic_stringIcSt11char_traitsIcESaIcEEE@Base 0.25
 _ZNK5Exiv212XmpTextValue10toRationalEl@Base 0.25
 _ZNK5Exiv212XmpTextValue4sizeEv@Base 0.25
 _ZNK5Exiv212XmpTextValue5cloneEv@Base 0.25
 _ZNK5Exiv212XmpTextValue5countEv@Base 0.25
 _ZNK5Exiv212XmpTextValue5writeERSo@Base 0.25
 _ZNK5Exiv212XmpTextValue6toLongEl@Base 0.25
 _ZNK5Exiv212XmpTextValue7toFloatEl@Base 0.25
 _ZNK5Exiv213XmpArrayValue10toRationalEl@Base 0.25
 _ZNK5Exiv213XmpArrayValue5cloneEv@Base 0.25
 _ZNK5Exiv213XmpArrayValue5countEv@Base 0.25
 _ZNK5Exiv213XmpArrayValue5writeERSo@Base 0.25
 _ZNK5Exiv213XmpArrayValue6toLongEl@Base 0.25
 _ZNK5Exiv213XmpArrayValue7toFloatEl@Base 0.25
 _ZNK5Exiv213XmpArrayValue8toStringB5cxx11El@Base 0.25
 _ZNK5Exiv214PreviewManager15getPreviewImageERKNS_17PreviewPropertiesE@Base 0.25
 _ZNK5Exiv214PreviewManager20getPreviewPropertiesEv@Base 0.25
 _ZNK5Exiv215StringValueBase10toRationalEl@Base 0.25
 _ZNK5Exiv215StringValueBase4copyEPhNS_9ByteOrderE@Base 0.25
 _ZNK5Exiv215StringValueBase4sizeEv@Base 0.25
 _ZNK5Exiv215StringValueBase5countEv@Base 0.25
 _ZNK5Exiv215StringValueBase5writeERSo@Base 0.25
 _ZNK5Exiv215StringValueBase6toLongEl@Base 0.25
 _ZNK5Exiv215StringValueBase7toFloatEl@Base 0.25
 _ZNK5Exiv215XmpPropertyInfoeqERKNSt7__cxx1112basic_stringIcSt11char_traitsIcESaIcEEE@Base 0.25
 _ZNK5Exiv23Key5cloneEv@Base 0.25
 _ZNK5Exiv25Image10pixelWidthEv@Base 0.25
 _ZNK5Exiv25Image11pixelHeightEv@Base 0.25
 _ZNK5Exiv25Image14nativePreviewsEv@Base 0.25
 _ZNK5Exiv25Image16supportsMetadataENS_10MetadataIdE@Base 0.25
 _ZNK5Exiv25Image18writeXmpFromPacketEv@Base 0.25
 _ZNK5Exiv25Image2ioEv@Base 0.25
 _ZNK5Exiv25Image4goodEv@Base 0.25
 _ZNK5Exiv25Image7commentB5cxx11Ev@Base 0.25
 _ZNK5Exiv25Image7xmpDataEv@Base 0.25
 _ZNK5Exiv25Image8exifDataEv@Base 0.25
 _ZNK5Exiv25Image8iptcDataEv@Base 0.25
 _ZNK5Exiv25Image9byteOrderEv@Base 0.25
 _ZNK5Exiv25Image9checkModeENS_10MetadataIdE@Base 0.25
 _ZNK5Exiv25Image9xmpPacketB5cxx11Ev@Base 0.25
 _ZNK5Exiv25MemIo3eofEv@Base 0.25
 _ZNK5Exiv25MemIo4pathB5cxx11Ev@Base 0.25
 _ZNK5Exiv25MemIo4sizeEv@Base 0.25
 _ZNK5Exiv25MemIo4tellEv@Base 0.25
 _ZNK5Exiv25MemIo5errorEv@Base 0.25
 _ZNK5Exiv25MemIo6isopenEv@Base 0.25
 _ZNK5Exiv25MemIo9temporaryEv@Base 0.25
 _ZNK5Exiv25Value12sizeDataAreaEv@Base 0.25
 _ZNK5Exiv25Value8dataAreaEv@Base 0.25
 _ZNK5Exiv25Value8toStringB5cxx11El@Base 0.25
 _ZNK5Exiv25Value8toStringB5cxx11Ev@Base 0.25
 _ZNK5Exiv26FileIo3eofEv@Base 0.25
 _ZNK5Exiv26FileIo4Impl4statERNS1_10StructStatE@Base 0.25
 _ZNK5Exiv26FileIo4pathB5cxx11Ev@Base 0.25
 _ZNK5Exiv26FileIo4sizeEv@Base 0.25
 _ZNK5Exiv26FileIo4tellEv@Base 0.25
 _ZNK5Exiv26FileIo5errorEv@Base 0.25
 _ZNK5Exiv26FileIo6isopenEv@Base 0.25
 _ZNK5Exiv26FileIo9temporaryEv@Base 0.25
 _ZNK5Exiv26XmpKey10familyNameEv@Base 0.25
 _ZNK5Exiv26XmpKey2nsB5cxx11Ev@Base 0.25
 _ZNK5Exiv26XmpKey3keyB5cxx11Ev@Base 0.25
 _ZNK5Exiv26XmpKey3tagEv@Base 0.25
 _ZNK5Exiv26XmpKey5cloneEv@Base 0.25
 _ZNK5Exiv26XmpKey7tagNameB5cxx11Ev@Base 0.25
 _ZNK5Exiv26XmpKey8tagLabelB5cxx11Ev@Base 0.25
 _ZNK5Exiv26XmpKey9groupNameB5cxx11Ev@Base 0.25
 _ZNK5Exiv27ExifKey10familyNameEv@Base 0.25
 _ZNK5Exiv27ExifKey13defaultTypeIdEv@Base 0.25
 _ZNK5Exiv27ExifKey3idxEv@Base 0.25
 _ZNK5Exiv27ExifKey3keyB5cxx11Ev@Base 0.25
 _ZNK5Exiv27ExifKey3tagEv@Base 0.25
 _ZNK5Exiv27ExifKey4Impl7tagNameB5cxx11Ev@Base 0.25
 _ZNK5Exiv27ExifKey5cloneEv@Base 0.25
 _ZNK5Exiv27ExifKey5ifdIdEv@Base 0.25
 _ZNK5Exiv27ExifKey7tagDescB5cxx11Ev@Base 0.25
 _ZNK5Exiv27ExifKey7tagNameB5cxx11Ev@Base 0.25
 _ZNK5Exiv27ExifKey8tagLabelB5cxx11Ev@Base 0.25
 _ZNK5Exiv27ExifKey9groupNameB5cxx11Ev@Base 0.25
 _ZNK5Exiv27IptcKey10familyNameEv@Base 0.25
 _ZNK5Exiv27IptcKey10recordNameB5cxx11Ev@Base 0.25
 _ZNK5Exiv27IptcKey3keyB5cxx11Ev@Base 0.25
 _ZNK5Exiv27IptcKey3tagEv@Base 0.25
 _ZNK5Exiv27IptcKey5cloneEv@Base 0.25
 _ZNK5Exiv27IptcKey6recordEv@Base 0.25
 _ZNK5Exiv27IptcKey7tagNameB5cxx11Ev@Base 0.25
 _ZNK5Exiv27IptcKey8tagLabelB5cxx11Ev@Base 0.25
 _ZNK5Exiv27IptcKey9groupNameB5cxx11Ev@Base 0.25
 _ZNK5Exiv27XmpData3endEv@Base 0.25
 _ZNK5Exiv27XmpData5beginEv@Base 0.25
 _ZNK5Exiv27XmpData5countEv@Base 0.25
 _ZNK5Exiv27XmpData5emptyEv@Base 0.25
 _ZNK5Exiv27XmpData7findKeyERKNS_6XmpKeyE@Base 0.25
 _ZNK5Exiv28BmpImage8mimeTypeB5cxx11Ev@Base 0.25
 _ZNK5Exiv28Cr2Image10pixelWidthEv@Base 0.25
 _ZNK5Exiv28Cr2Image11pixelHeightEv@Base 0.25
 _ZNK5Exiv28Cr2Image8mimeTypeB5cxx11Ev@Base 0.25
 _ZNK5Exiv28CrwImage10pixelWidthEv@Base 0.25
 _ZNK5Exiv28CrwImage11pixelHeightEv@Base 0.25
 _ZNK5Exiv28CrwImage8mimeTypeB5cxx11Ev@Base 0.25
 _ZNK5Exiv28EpsImage8mimeTypeB5cxx11Ev@Base 0.25
 _ZNK5Exiv28ExifData7findKeyERKNS_7ExifKeyE@Base 0.25
 _ZNK5Exiv28ExvImage10isThisTypeERNS_7BasicIoEb@Base 0.25
 _ZNK5Exiv28ExvImage11writeHeaderERNS_7BasicIoE@Base 0.25
 _ZNK5Exiv28ExvImage8mimeTypeB5cxx11Ev@Base 0.25
 _ZNK5Exiv28GifImage8mimeTypeB5cxx11Ev@Base 0.25
 _ZNK5Exiv28IptcData13detectCharsetEv@Base 0.25
 _ZNK5Exiv28IptcData4sizeEv@Base 0.25
 _ZNK5Exiv28IptcData6findIdEtt@Base 0.25
 _ZNK5Exiv28IptcData7findKeyERKNS_7IptcKeyE@Base 0.25
 _ZNK5Exiv28Jp2Image8mimeTypeB5cxx11Ev@Base 0.25
 _ZNK5Exiv28MrwImage10pixelWidthEv@Base 0.25
 _ZNK5Exiv28MrwImage11pixelHeightEv@Base 0.25
 _ZNK5Exiv28MrwImage8mimeTypeB5cxx11Ev@Base 0.25
 _ZNK5Exiv28OrfImage10pixelWidthEv@Base 0.25
 _ZNK5Exiv28OrfImage11pixelHeightEv@Base 0.25
 _ZNK5Exiv28OrfImage8mimeTypeB5cxx11Ev@Base 0.25
 _ZNK5Exiv28PngImage8mimeTypeB5cxx11Ev@Base 0.25
 _ZNK5Exiv28PsdImage8mimeTypeB5cxx11Ev@Base 0.25
 _ZNK5Exiv28RafImage10pixelWidthEv@Base 0.25
 _ZNK5Exiv28RafImage11pixelHeightEv@Base 0.25
 _ZNK5Exiv28RafImage8mimeTypeB5cxx11Ev@Base 0.25
 _ZNK5Exiv28RemoteIo3eofEv@Base 0.25
 _ZNK5Exiv28RemoteIo4pathB5cxx11Ev@Base 0.25
 _ZNK5Exiv28RemoteIo4sizeEv@Base 0.25
 _ZNK5Exiv28RemoteIo4tellEv@Base 0.25
 _ZNK5Exiv28RemoteIo5errorEv@Base 0.25
 _ZNK5Exiv28RemoteIo6isopenEv@Base 0.25
 _ZNK5Exiv28RemoteIo9temporaryEv@Base 0.25
 _ZNK5Exiv28Rw2Image10pixelWidthEv@Base 0.25
 _ZNK5Exiv28Rw2Image11pixelHeightEv@Base 0.25
 _ZNK5Exiv28Rw2Image8mimeTypeB5cxx11Ev@Base 0.25
 _ZNK5Exiv28TgaImage8mimeTypeB5cxx11Ev@Base 0.25
 _ZNK5Exiv28XmpValue12xmpArrayTypeEv@Base 0.25
 _ZNK5Exiv28XmpValue4copyEPhNS_9ByteOrderE@Base 0.25
 _ZNK5Exiv28XmpValue4sizeEv@Base 0.25
 _ZNK5Exiv28XmpValue9xmpStructEv@Base 0.25
 _ZNK5Exiv28Xmpdatum10familyNameEv@Base 0.25
 _ZNK5Exiv28Xmpdatum10toRationalEl@Base 0.25
 _ZNK5Exiv28Xmpdatum3keyB5cxx11Ev@Base 0.25
 _ZNK5Exiv28Xmpdatum3tagEv@Base 0.25
 _ZNK5Exiv28Xmpdatum4copyEPhNS_9ByteOrderE@Base 0.25
 _ZNK5Exiv28Xmpdatum4sizeEv@Base 0.25
 _ZNK5Exiv28Xmpdatum5countEv@Base 0.25
 _ZNK5Exiv28Xmpdatum5valueEv@Base 0.25
 _ZNK5Exiv28Xmpdatum5writeERSoPKNS_8ExifDataE@Base 0.25
 _ZNK5Exiv28Xmpdatum6toLongEl@Base 0.25
 _ZNK5Exiv28Xmpdatum6typeIdEv@Base 0.25
 _ZNK5Exiv28Xmpdatum7tagNameB5cxx11Ev@Base 0.25
 _ZNK5Exiv28Xmpdatum7toFloatEl@Base 0.25
 _ZNK5Exiv28Xmpdatum8getValueEv@Base 0.25
 _ZNK5Exiv28Xmpdatum8tagLabelB5cxx11Ev@Base 0.25
 _ZNK5Exiv28Xmpdatum8toStringB5cxx11El@Base 0.25
 _ZNK5Exiv28Xmpdatum8toStringB5cxx11Ev@Base 0.25
 _ZNK5Exiv28Xmpdatum8typeNameEv@Base 0.25
 _ZNK5Exiv28Xmpdatum8typeSizeEv@Base 0.25
 _ZNK5Exiv28Xmpdatum9groupNameB5cxx11Ev@Base 0.25
 _ZNK5Exiv29DataValue10toRationalEl@Base 0.25
 _ZNK5Exiv29DataValue4copyEPhNS_9ByteOrderE@Base 0.25
 _ZNK5Exiv29DataValue4sizeEv@Base 0.25
 _ZNK5Exiv29DataValue5countEv@Base 0.25
 _ZNK5Exiv29DataValue5writeERSo@Base 0.25
 _ZNK5Exiv29DataValue6toLongEl@Base 0.25
 _ZNK5Exiv29DataValue7toFloatEl@Base 0.25
 _ZNK5Exiv29DataValue8toStringB5cxx11El@Base 0.25
 _ZNK5Exiv29DateValue10toRationalEl@Base 0.25
 _ZNK5Exiv29DateValue4copyEPhNS_9ByteOrderE@Base 0.25
 _ZNK5Exiv29DateValue4sizeEv@Base 0.25
 _ZNK5Exiv29DateValue5countEv@Base 0.25
 _ZNK5Exiv29DateValue5writeERSo@Base 0.25
 _ZNK5Exiv29DateValue6toLongEl@Base 0.25
 _ZNK5Exiv29DateValue7getDateEv@Base 0.25
 _ZNK5Exiv29DateValue7toFloatEl@Base 0.25
 _ZNK5Exiv29Exifdatum10familyNameEv@Base 0.25
 _ZNK5Exiv29Exifdatum10toRationalEl@Base 0.25
 _ZNK5Exiv29Exifdatum12sizeDataAreaEv@Base 0.25
 _ZNK5Exiv29Exifdatum3idxEv@Base 0.25
 _ZNK5Exiv29Exifdatum3keyB5cxx11Ev@Base 0.25
 _ZNK5Exiv29Exifdatum3tagEv@Base 0.25
 _ZNK5Exiv29Exifdatum4copyEPhNS_9ByteOrderE@Base 0.25
 _ZNK5Exiv29Exifdatum4sizeEv@Base 0.25
 _ZNK5Exiv29Exifdatum5countEv@Base 0.25
 _ZNK5Exiv29Exifdatum5ifdIdEv@Base 0.25
 _ZNK5Exiv29Exifdatum5valueEv@Base 0.25
 _ZNK5Exiv29Exifdatum5writeERSoPKNS_8ExifDataE@Base 0.25
 _ZNK5Exiv29Exifdatum6toLongEl@Base 0.25
 _ZNK5Exiv29Exifdatum6typeIdEv@Base 0.25
 _ZNK5Exiv29Exifdatum7ifdNameEv@Base 0.25
 _ZNK5Exiv29Exifdatum7tagNameB5cxx11Ev@Base 0.25
 _ZNK5Exiv29Exifdatum7toFloatEl@Base 0.25
 _ZNK5Exiv29Exifdatum8dataAreaEv@Base 0.25
 _ZNK5Exiv29Exifdatum8getValueEv@Base 0.25
 _ZNK5Exiv29Exifdatum8tagLabelB5cxx11Ev@Base 0.25
 _ZNK5Exiv29Exifdatum8toStringB5cxx11El@Base 0.25
 _ZNK5Exiv29Exifdatum8toStringB5cxx11Ev@Base 0.25
 _ZNK5Exiv29Exifdatum8typeNameEv@Base 0.25
 _ZNK5Exiv29Exifdatum8typeSizeEv@Base 0.25
 _ZNK5Exiv29Exifdatum9groupNameB5cxx11Ev@Base 0.25
 _ZNK5Exiv29GroupInfoeqERKNS0_9GroupNameE@Base 0.25
 _ZNK5Exiv29GroupInfoeqEi@Base 0.25
 _ZNK5Exiv29Iptcdatum10familyNameEv@Base 0.25
 _ZNK5Exiv29Iptcdatum10recordNameB5cxx11Ev@Base 0.25
 _ZNK5Exiv29Iptcdatum10toRationalEl@Base 0.25
 _ZNK5Exiv29Iptcdatum3keyB5cxx11Ev@Base 0.25
 _ZNK5Exiv29Iptcdatum3tagEv@Base 0.25
 _ZNK5Exiv29Iptcdatum4copyEPhNS_9ByteOrderE@Base 0.25
 _ZNK5Exiv29Iptcdatum4sizeEv@Base 0.25
 _ZNK5Exiv29Iptcdatum5countEv@Base 0.25
 _ZNK5Exiv29Iptcdatum5valueEv@Base 0.25
 _ZNK5Exiv29Iptcdatum5writeERSoPKNS_8ExifDataE@Base 0.25
 _ZNK5Exiv29Iptcdatum6recordEv@Base 0.25
 _ZNK5Exiv29Iptcdatum6toLongEl@Base 0.25
 _ZNK5Exiv29Iptcdatum6typeIdEv@Base 0.25
 _ZNK5Exiv29Iptcdatum7tagNameB5cxx11Ev@Base 0.25
 _ZNK5Exiv29Iptcdatum7toFloatEl@Base 0.25
 _ZNK5Exiv29Iptcdatum8getValueEv@Base 0.25
 _ZNK5Exiv29Iptcdatum8tagLabelB5cxx11Ev@Base 0.25
 _ZNK5Exiv29Iptcdatum8toStringB5cxx11El@Base 0.25
 _ZNK5Exiv29Iptcdatum8toStringB5cxx11Ev@Base 0.25
 _ZNK5Exiv29Iptcdatum8typeNameEv@Base 0.25
 _ZNK5Exiv29Iptcdatum8typeSizeEv@Base 0.25
 _ZNK5Exiv29Iptcdatum9groupNameB5cxx11Ev@Base 0.25
 _ZNK5Exiv29JpegImage10isThisTypeERNS_7BasicIoEb@Base 0.25
 _ZNK5Exiv29JpegImage11writeHeaderERNS_7BasicIoE@Base 0.25
 _ZNK5Exiv29JpegImage8mimeTypeB5cxx11Ev@Base 0.25
 _ZNK5Exiv29Metadatum5printB5cxx11EPKNS_8ExifDataE@Base 0.25
 _ZNK5Exiv29TiffImage10pixelWidthEv@Base 0.25
 _ZNK5Exiv29TiffImage11pixelHeightEv@Base 0.25
 _ZNK5Exiv29TiffImage12primaryGroupB5cxx11Ev@Base 0.25
 _ZNK5Exiv29TiffImage8mimeTypeB5cxx11Ev@Base 0.25
 _ZNK5Exiv29TimeValue10toRationalEl@Base 0.25
 _ZNK5Exiv29TimeValue4copyEPhNS_9ByteOrderE@Base 0.25
 _ZNK5Exiv29TimeValue4sizeEv@Base 0.25
 _ZNK5Exiv29TimeValue5countEv@Base 0.25
 _ZNK5Exiv29TimeValue5writeERSo@Base 0.25
 _ZNK5Exiv29TimeValue6toLongEl@Base 0.25
 _ZNK5Exiv29TimeValue7getTimeEv@Base 0.25
 _ZNK5Exiv29TimeValue7toFloatEl@Base 0.25
 _ZNK5Exiv29XmpNsInfoeqERKNS0_2NsE@Base 0.25
 _ZNK5Exiv29XmpNsInfoeqERKNS0_6PrefixE@Base 0.25
 _ZNKSt8_Rb_treeINSt7__cxx1112basic_stringIcSt11char_traitsIcESaIcEEESt4pairIKS5_S5_ESt10_Select1stIS8_ESt4lessIS5_ESaIS8_EE4findERS7_@Base 0.25
 _ZNSt3_V28__rotateIN9__gnu_cxx17__normal_iteratorIPN5Exiv29IptcdatumESt6vectorIS4_SaIS4_EEEEEET_SA_SA_SA_St26random_access_iterator_tag@Base 0.25
 _ZNSt3mapINSt7__cxx1112basic_stringIcSt11char_traitsIcESaIcEEES5_St4lessIS5_ESaISt4pairIKS5_S5_EEEixEOS5_@Base 0.25-3.1ubuntu0.18.04.4
 _ZNSt6vectorIN5Exiv217PreviewPropertiesESaIS1_EE17_M_realloc_insertIJS1_EEEvN9__gnu_cxx17__normal_iteratorIPS1_S3_EEDpOT_@Base 0.25-3.1ubuntu0.18.04.4
 _ZNSt6vectorIN5Exiv28Internal5IfdIdESaIS2_EE17_M_realloc_insertIJS2_EEEvN9__gnu_cxx17__normal_iteratorIPS2_S4_EEDpOT_@Base 0.25-3.1ubuntu0.18.04.4
 _ZNSt6vectorIN5Exiv28XmpdatumESaIS1_EE17_M_realloc_insertIJRKS1_EEEvN9__gnu_cxx17__normal_iteratorIPS1_S3_EEDpOT_@Base 0.25-3.1ubuntu0.18.04.4
 _ZNSt6vectorIN5Exiv28XmpdatumESaIS1_EED1Ev@Base 0.25
 _ZNSt6vectorIN5Exiv28XmpdatumESaIS1_EED2Ev@Base 0.25
 _ZNSt6vectorIN5Exiv28XmpdatumESaIS1_EEaSERKS3_@Base 0.25
 _ZNSt6vectorIN5Exiv29IptcdatumESaIS1_EE17_M_realloc_insertIJRKS1_EEEvN9__gnu_cxx17__normal_iteratorIPS1_S3_EEDpOT_@Base 0.25-3.1ubuntu0.18.04.4
 _ZNSt6vectorIN5Exiv29IptcdatumESaIS1_EED1Ev@Base 0.25
 _ZNSt6vectorIN5Exiv29IptcdatumESaIS1_EED2Ev@Base 0.25
 _ZNSt6vectorIN5Exiv29IptcdatumESaIS1_EEaSERKS3_@Base 0.25
 _ZNSt6vectorINSt7__cxx1112basic_stringIcSt11char_traitsIcESaIcEEESaIS5_EE12emplace_backIJS5_EEEvDpOT_@Base 0.25-3.1ubuntu0.18.04.4
 _ZNSt6vectorINSt7__cxx1112basic_stringIcSt11char_traitsIcESaIcEEESaIS5_EE17_M_realloc_insertIJRKS5_EEEvN9__gnu_cxx17__normal_iteratorIPS5_S7_EEDpOT_@Base 0.25-3.1ubuntu0.18.04.4
 _ZNSt6vectorINSt7__cxx1112basic_stringIcSt11char_traitsIcESaIcEEESaIS5_EE17_M_realloc_insertIJS5_EEEvN9__gnu_cxx17__normal_iteratorIPS5_S7_EEDpOT_@Base 0.25-3.1ubuntu0.18.04.4
 _ZNSt6vectorISt4pairIPKhjESaIS3_EE12emplace_backIJS3_EEEvDpOT_@Base 0.25-3.1ubuntu0.18.04.4
 _ZNSt6vectorISt4pairIPKhjESaIS3_EE17_M_realloc_insertIJS3_EEEvN9__gnu_cxx17__normal_iteratorIPS3_S5_EEDpOT_@Base 0.25-3.1ubuntu0.18.04.4
 _ZNSt6vectorISt4pairIPKhjESaIS3_EEaSERKS5_@Base 0.25
 _ZNSt6vectorISt4pairIiiESaIS1_EE17_M_realloc_insertIJRKS1_EEEvN9__gnu_cxx17__normal_iteratorIPS1_S3_EEDpOT_@Base 0.25-3.1ubuntu0.18.04.4
 _ZNSt6vectorISt4pairIjjESaIS1_EE17_M_realloc_insertIJRKS1_EEEvN9__gnu_cxx17__normal_iteratorIPS1_S3_EEDpOT_@Base 0.25-3.1ubuntu0.18.04.4
 _ZNSt6vectorISt4pairImmESaIS1_EE12emplace_backIJS1_EEEvDpOT_@Base 0.25-3.1ubuntu0.18.04.4
 _ZNSt6vectorISt4pairImmESaIS1_EE17_M_realloc_insertIJS1_EEEvN9__gnu_cxx17__normal_iteratorIPS1_S3_EEDpOT_@Base 0.25-3.1ubuntu0.18.04.4
 _ZNSt6vectorIcSaIcEE12emplace_backIJcEEEvDpOT_@Base 0.25-3.1ubuntu0.18.04.4
 _ZNSt6vectorIhSaIhEE12emplace_backIJhEEEvDpOT_@Base 0.25-3.1ubuntu0.18.04.4
 _ZNSt6vectorIiSaIiEE17_M_realloc_insertIJRKiEEEvN9__gnu_cxx17__normal_iteratorIPiS1_EEDpOT_@Base 0.25-3.1ubuntu0.18.04.4
 _ZNSt6vectorIjSaIjEE17_M_realloc_insertIJRKjEEEvN9__gnu_cxx17__normal_iteratorIPjS1_EEDpOT_@Base 0.25-3.1ubuntu0.18.04.4
 _ZNSt6vectorImSaImEE17_M_realloc_insertIJRKmEEEvN9__gnu_cxx17__normal_iteratorIPmS1_EEDpOT_@Base 0.25-3.1ubuntu0.18.04.4
 _ZNSt6vectorIsSaIsEE17_M_realloc_insertIJRKsEEEvN9__gnu_cxx17__normal_iteratorIPsS1_EEDpOT_@Base 0.25-3.1ubuntu0.18.04.4
 _ZNSt6vectorItSaItEE17_M_realloc_insertIJRKtEEEvN9__gnu_cxx17__normal_iteratorIPtS1_EEDpOT_@Base 0.25-3.1ubuntu0.18.04.4
 _ZNSt7__cxx1110_List_baseIN5Exiv29ExifdatumESaIS2_EE8_M_clearEv@Base 0.25
 _ZNSt7__cxx114listIN5Exiv29ExifdatumESaIS2_EE4sortIPFbRKNS1_9MetadatumES8_EEEvT_@Base 0.25
 _ZNSt7__cxx114listIN5Exiv29ExifdatumESaIS2_EE5mergeIPFbRKNS1_9MetadatumES8_EEEvOS4_T_@Base 0.25-3.1ubuntu0.18.04.4
 _ZNSt8_Rb_treeINSt7__cxx1112basic_stringIcSt11char_traitsIcESaIcEEESt4pairIKS5_N5Exiv29XmpNsInfoEESt10_Select1stISA_ESt4lessIS5_ESaISA_EE24_M_get_insert_unique_posERS7_@Base 0.25
 _ZNSt8_Rb_treeINSt7__cxx1112basic_stringIcSt11char_traitsIcESaIcEEESt4pairIKS5_N5Exiv29XmpNsInfoEESt10_Select1stISA_ESt4lessIS5_ESaISA_EE29_M_get_insert_hint_unique_posESt23_Rb_tree_const_iteratorISA_ERS7_@Base 0.25
 _ZNSt8_Rb_treeINSt7__cxx1112basic_stringIcSt11char_traitsIcESaIcEEESt4pairIKS5_N5Exiv29XmpNsInfoEESt10_Select1stISA_ESt4lessIS5_ESaISA_EE4findERS7_@Base 0.25
 _ZNSt8_Rb_treeINSt7__cxx1112basic_stringIcSt11char_traitsIcESaIcEEESt4pairIKS5_N5Exiv29XmpNsInfoEESt10_Select1stISA_ESt4lessIS5_ESaISA_EE8_M_eraseEPSt13_Rb_tree_nodeISA_E@Base 0.25
 _ZNSt8_Rb_treeINSt7__cxx1112basic_stringIcSt11char_traitsIcESaIcEEESt4pairIKS5_S5_ESt10_Select1stIS8_ESt4lessIS5_ESaIS8_EE12_M_erase_auxESt23_Rb_tree_const_iteratorIS8_E@Base 0.25
 _ZNSt8_Rb_treeINSt7__cxx1112basic_stringIcSt11char_traitsIcESaIcEEESt4pairIKS5_S5_ESt10_Select1stIS8_ESt4lessIS5_ESaIS8_EE14_M_insert_nodeEPSt18_Rb_tree_node_baseSG_PSt13_Rb_tree_nodeIS8_E@Base 0.25-3.1ubuntu0.18.04.4
 _ZNSt8_Rb_treeINSt7__cxx1112basic_stringIcSt11char_traitsIcESaIcEEESt4pairIKS5_S5_ESt10_Select1stIS8_ESt4lessIS5_ESaIS8_EE24_M_get_insert_unique_posERS7_@Base 0.25
 _ZNSt8_Rb_treeINSt7__cxx1112basic_stringIcSt11char_traitsIcESaIcEEESt4pairIKS5_S5_ESt10_Select1stIS8_ESt4lessIS5_ESaIS8_EE29_M_get_insert_hint_unique_posESt23_Rb_tree_const_iteratorIS8_ERS7_@Base 0.25
 _ZNSt8_Rb_treeINSt7__cxx1112basic_stringIcSt11char_traitsIcESaIcEEESt4pairIKS5_S5_ESt10_Select1stIS8_ESt4lessIS5_ESaIS8_EE4findERS7_@Base 0.25
 _ZNSt8_Rb_treeINSt7__cxx1112basic_stringIcSt11char_traitsIcESaIcEEESt4pairIKS5_S5_ESt10_Select1stIS8_ESt4lessIS5_ESaIS8_EE8_M_eraseEPSt13_Rb_tree_nodeIS8_E@Base 0.25
 _ZNSt8_Rb_treeIPKhSt4pairIKS1_N5Exiv28Internal5IfdIdEESt10_Select1stIS7_ESt4lessIS1_ESaIS7_EE24_M_get_insert_unique_posERS3_@Base 0.25
 _ZNSt8_Rb_treeIPKhSt4pairIKS1_N5Exiv28Internal5IfdIdEESt10_Select1stIS7_ESt4lessIS1_ESaIS7_EE29_M_get_insert_hint_unique_posESt23_Rb_tree_const_iteratorIS7_ERS3_@Base 0.25
 _ZNSt8_Rb_treeIPKhSt4pairIKS1_N5Exiv28Internal5IfdIdEESt10_Select1stIS7_ESt4lessIS1_ESaIS7_EE8_M_eraseEPSt13_Rb_tree_nodeIS7_E@Base 0.25
 _ZNSt8_Rb_treeIiSt4pairIKiNSt7__cxx1112basic_stringIcSt11char_traitsIcESaIcEEEESt10_Select1stIS8_ESt4lessIiESaIS8_EE24_M_get_insert_unique_posERS1_@Base 0.25
 _ZNSt8_Rb_treeIiSt4pairIKiNSt7__cxx1112basic_stringIcSt11char_traitsIcESaIcEEEESt10_Select1stIS8_ESt4lessIiESaIS8_EE29_M_get_insert_hint_unique_posESt23_Rb_tree_const_iteratorIS8_ERS1_@Base 0.25
 _ZNSt8_Rb_treeIiSt4pairIKiNSt7__cxx1112basic_stringIcSt11char_traitsIcESaIcEEEESt10_Select1stIS8_ESt4lessIiESaIS8_EE8_M_eraseEPSt13_Rb_tree_nodeIS8_E@Base 0.25
 _ZNSt8_Rb_treeItSt4pairIKtiESt10_Select1stIS2_ESt4lessItESaIS2_EE24_M_get_insert_unique_posERS1_@Base 0.25
 _ZNSt8_Rb_treeItSt4pairIKtiESt10_Select1stIS2_ESt4lessItESaIS2_EE29_M_get_insert_hint_unique_posESt23_Rb_tree_const_iteratorIS2_ERS1_@Base 0.25
 _ZNSt8_Rb_treeItSt4pairIKtiESt10_Select1stIS2_ESt4lessItESaIS2_EE8_M_eraseEPSt13_Rb_tree_nodeIS2_E@Base 0.25
 _ZNSt8_Rb_treeImSt4pairIKmS0_IPNSt7__cxx1112basic_stringIcSt11char_traitsIcESaIcEEES8_EESt10_Select1stISA_ESt4lessImESaISA_EE28_M_get_insert_hint_equal_posESt23_Rb_tree_const_iteratorISA_ERS1_@Base 0.25
 _ZNSt8_Rb_treeImSt4pairIKmS0_IPNSt7__cxx1112basic_stringIcSt11char_traitsIcESaIcEEES8_EESt10_Select1stISA_ESt4lessImESaISA_EE8_M_eraseEPSt13_Rb_tree_nodeISA_E@Base 0.25
 _ZSt17__rotate_adaptiveIN9__gnu_cxx17__normal_iteratorIPN5Exiv29IptcdatumESt6vectorIS3_SaIS3_EEEES4_lET_S9_S9_S9_T1_SA_T0_SA_@Base 0.25
 _ZStplIcSt11char_traitsIcESaIcEENSt7__cxx1112basic_stringIT_T0_T1_EEOS8_PKS5_@Base 0.25-3.1ubuntu0.18.04.4
 _ZStplIcSt11char_traitsIcESaIcEENSt7__cxx1112basic_stringIT_T0_T1_EEOS8_RKS8_@Base 0.25-3.1ubuntu0.18.04.4
 _ZStplIcSt11char_traitsIcESaIcEENSt7__cxx1112basic_stringIT_T0_T1_EEPKS5_OS8_@Base 0.25-3.1ubuntu0.18.04.4
 _ZStplIcSt11char_traitsIcESaIcEENSt7__cxx1112basic_stringIT_T0_T1_EEPKS5_RKS8_@Base 0.25
 _ZStplIcSt11char_traitsIcESaIcEENSt7__cxx1112basic_stringIT_T0_T1_EERKS8_SA_@Base 0.25
 _ZTIN5Exiv210AsciiValueE@Base 0.25
 _ZTIN5Exiv210BasicErrorIcEE@Base 0.25
 _ZTIN5Exiv210XmpSidecarE@Base 0.25
 _ZTIN5Exiv211StringValueE@Base 0.25
 _ZTIN5Exiv212CommentValueE@Base 0.25
 _ZTIN5Exiv212LangAltValueE@Base 0.25
 _ZTIN5Exiv212XmpTextValueE@Base 0.25
 _ZTIN5Exiv213XmpArrayValueE@Base 0.25
 _ZTIN5Exiv215StringValueBaseE@Base 0.25
 _ZTIN5Exiv23KeyE@Base 0.25
 _ZTIN5Exiv25ImageE@Base 0.25
 _ZTIN5Exiv25MemIoE@Base 0.25
 _ZTIN5Exiv25ValueE@Base 0.25
 _ZTIN5Exiv26FileIoE@Base 0.25
 _ZTIN5Exiv26HttpIo8HttpImplE@Base 0.25
 _ZTIN5Exiv26HttpIoE@Base 0.25
 _ZTIN5Exiv26XmpKeyE@Base 0.25
 _ZTIN5Exiv27BasicIoE@Base 0.25
 _ZTIN5Exiv27ExifKeyE@Base 0.25
 _ZTIN5Exiv27IptcKeyE@Base 0.25
 _ZTIN5Exiv27XPathIoE@Base 0.25
 _ZTIN5Exiv28AnyErrorE@Base 0.25
 _ZTIN5Exiv28BlockMapE@Base 0.25
 _ZTIN5Exiv28BmpImageE@Base 0.25
 _ZTIN5Exiv28Cr2ImageE@Base 0.25
 _ZTIN5Exiv28CrwImageE@Base 0.25
 _ZTIN5Exiv28EpsImageE@Base 0.25
 _ZTIN5Exiv28ExvImageE@Base 0.25
 _ZTIN5Exiv28GifImageE@Base 0.25
 _ZTIN5Exiv28IoCloserE@Base 0.25
 _ZTIN5Exiv28Jp2ImageE@Base 0.25
 _ZTIN5Exiv28JpegBaseE@Base 0.25
 _ZTIN5Exiv28MrwImageE@Base 0.25
 _ZTIN5Exiv28OrfImageE@Base 0.25
 _ZTIN5Exiv28PgfImageE@Base 0.25
 _ZTIN5Exiv28PngImageE@Base 0.25
 _ZTIN5Exiv28PsdImageE@Base 0.25
 _ZTIN5Exiv28RafImageE@Base 0.25
 _ZTIN5Exiv28RemoteIo4ImplE@Base 0.25
 _ZTIN5Exiv28RemoteIoE@Base 0.25
 _ZTIN5Exiv28Rw2ImageE@Base 0.25
 _ZTIN5Exiv28TgaImageE@Base 0.25
 _ZTIN5Exiv28XmpValueE@Base 0.25
 _ZTIN5Exiv28XmpdatumE@Base 0.25
 _ZTIN5Exiv29DataValueE@Base 0.25
 _ZTIN5Exiv29DateValueE@Base 0.25
 _ZTIN5Exiv29ExifdatumE@Base 0.25
 _ZTIN5Exiv29IptcdatumE@Base 0.25
 _ZTIN5Exiv29JpegImageE@Base 0.25
 _ZTIN5Exiv29MetadatumE@Base 0.25
 _ZTIN5Exiv29TiffImageE@Base 0.25
 _ZTIN5Exiv29TimeValueE@Base 0.25
 _ZTSN5Exiv210AsciiValueE@Base 0.25
 _ZTSN5Exiv210BasicErrorIcEE@Base 0.25
 _ZTSN5Exiv210XmpSidecarE@Base 0.25
 _ZTSN5Exiv211StringValueE@Base 0.25
 _ZTSN5Exiv212CommentValueE@Base 0.25
 _ZTSN5Exiv212LangAltValueE@Base 0.25
 _ZTSN5Exiv212XmpTextValueE@Base 0.25
 _ZTSN5Exiv213XmpArrayValueE@Base 0.25
 _ZTSN5Exiv215StringValueBaseE@Base 0.25
 _ZTSN5Exiv23KeyE@Base 0.25
 _ZTSN5Exiv25ImageE@Base 0.25
 _ZTSN5Exiv25MemIoE@Base 0.25
 _ZTSN5Exiv25ValueE@Base 0.25
 _ZTSN5Exiv26FileIoE@Base 0.25
 _ZTSN5Exiv26HttpIo8HttpImplE@Base 0.25
 _ZTSN5Exiv26HttpIoE@Base 0.25
 _ZTSN5Exiv26XmpKeyE@Base 0.25
 _ZTSN5Exiv27BasicIoE@Base 0.25
 _ZTSN5Exiv27ExifKeyE@Base 0.25
 _ZTSN5Exiv27IptcKeyE@Base 0.25
 _ZTSN5Exiv27XPathIoE@Base 0.25
 _ZTSN5Exiv28AnyErrorE@Base 0.25
 _ZTSN5Exiv28BlockMapE@Base 0.25
 _ZTSN5Exiv28BmpImageE@Base 0.25
 _ZTSN5Exiv28Cr2ImageE@Base 0.25
 _ZTSN5Exiv28CrwImageE@Base 0.25
 _ZTSN5Exiv28EpsImageE@Base 0.25
 _ZTSN5Exiv28ExvImageE@Base 0.25
 _ZTSN5Exiv28GifImageE@Base 0.25
 _ZTSN5Exiv28IoCloserE@Base 0.25
 _ZTSN5Exiv28Jp2ImageE@Base 0.25
 _ZTSN5Exiv28JpegBaseE@Base 0.25
 _ZTSN5Exiv28MrwImageE@Base 0.25
 _ZTSN5Exiv28OrfImageE@Base 0.25
 _ZTSN5Exiv28PgfImageE@Base 0.25
 _ZTSN5Exiv28PngImageE@Base 0.25
 _ZTSN5Exiv28PsdImageE@Base 0.25
 _ZTSN5Exiv28RafImageE@Base 0.25
 _ZTSN5Exiv28RemoteIo4ImplE@Base 0.25
 _ZTSN5Exiv28RemoteIoE@Base 0.25
 _ZTSN5Exiv28Rw2ImageE@Base 0.25
 _ZTSN5Exiv28TgaImageE@Base 0.25
 _ZTSN5Exiv28XmpValueE@Base 0.25
 _ZTSN5Exiv28XmpdatumE@Base 0.25
 _ZTSN5Exiv29DataValueE@Base 0.25
 _ZTSN5Exiv29DateValueE@Base 0.25
 _ZTSN5Exiv29ExifdatumE@Base 0.25
 _ZTSN5Exiv29IptcdatumE@Base 0.25
 _ZTSN5Exiv29JpegImageE@Base 0.25
 _ZTSN5Exiv29MetadatumE@Base 0.25
 _ZTSN5Exiv29TiffImageE@Base 0.25
 _ZTSN5Exiv29TimeValueE@Base 0.25
 _ZTVN5Exiv210AsciiValueE@Base 0.25
 _ZTVN5Exiv210BasicErrorIcEE@Base 0.25
 _ZTVN5Exiv210XmpSidecarE@Base 0.25
 _ZTVN5Exiv211StringValueE@Base 0.25
 _ZTVN5Exiv212CommentValueE@Base 0.25
 _ZTVN5Exiv212LangAltValueE@Base 0.25
 _ZTVN5Exiv212XmpTextValueE@Base 0.25
 _ZTVN5Exiv213XmpArrayValueE@Base 0.25
 _ZTVN5Exiv215StringValueBaseE@Base 0.25
 _ZTVN5Exiv23KeyE@Base 0.25
 _ZTVN5Exiv25ImageE@Base 0.25
 _ZTVN5Exiv25MemIoE@Base 0.25
 _ZTVN5Exiv25ValueE@Base 0.25
 _ZTVN5Exiv26FileIoE@Base 0.25
 _ZTVN5Exiv26HttpIo8HttpImplE@Base 0.25
 _ZTVN5Exiv26HttpIoE@Base 0.25
 _ZTVN5Exiv26XmpKeyE@Base 0.25
 _ZTVN5Exiv27BasicIoE@Base 0.25
 _ZTVN5Exiv27ExifKeyE@Base 0.25
 _ZTVN5Exiv27IptcKeyE@Base 0.25
 _ZTVN5Exiv27XPathIoE@Base 0.25
 _ZTVN5Exiv28AnyErrorE@Base 0.25
 _ZTVN5Exiv28BlockMapE@Base 0.25
 _ZTVN5Exiv28BmpImageE@Base 0.25
 _ZTVN5Exiv28Cr2ImageE@Base 0.25
 _ZTVN5Exiv28CrwImageE@Base 0.25
 _ZTVN5Exiv28EpsImageE@Base 0.25
 _ZTVN5Exiv28ExvImageE@Base 0.25
 _ZTVN5Exiv28GifImageE@Base 0.25
 _ZTVN5Exiv28IoCloserE@Base 0.25
 _ZTVN5Exiv28Jp2ImageE@Base 0.25
 _ZTVN5Exiv28JpegBaseE@Base 0.25
 _ZTVN5Exiv28MrwImageE@Base 0.25
 _ZTVN5Exiv28OrfImageE@Base 0.25
 _ZTVN5Exiv28PgfImageE@Base 0.25
 _ZTVN5Exiv28PngImageE@Base 0.25
 _ZTVN5Exiv28PsdImageE@Base 0.25
 _ZTVN5Exiv28RafImageE@Base 0.25
 _ZTVN5Exiv28RemoteIo4ImplE@Base 0.25
 _ZTVN5Exiv28RemoteIoE@Base 0.25
 _ZTVN5Exiv28Rw2ImageE@Base 0.25
 _ZTVN5Exiv28TgaImageE@Base 0.25
 _ZTVN5Exiv28XmpValueE@Base 0.25
 _ZTVN5Exiv28XmpdatumE@Base 0.25
 _ZTVN5Exiv29DataValueE@Base 0.25
 _ZTVN5Exiv29DateValueE@Base 0.25
 _ZTVN5Exiv29ExifdatumE@Base 0.25
 _ZTVN5Exiv29IptcdatumE@Base 0.25
 _ZTVN5Exiv29JpegImageE@Base 0.25
 _ZTVN5Exiv29MetadatumE@Base 0.25
 _ZTVN5Exiv29TiffImageE@Base 0.25
 _ZTVN5Exiv29TimeValueE@Base 0.25
