libopenmpt.so.0 libopenmpt0 #MINVER#
* Build-Depends-Package: libopenmpt-dev
 _ZN7openmpt10module_ext13get_interfaceERKNSt7__cxx1112basic_stringIcSt11char_traitsIcESaIcEEE@Base 0.2.7025~beta20.1
 _ZN7openmpt10module_extC1EPKcmRSoRKSt3mapINSt7__cxx1112basic_stringIcSt11char_traitsIcESaIcEEESA_St4lessISA_ESaISt4pairIKSA_SA_EEE@Base 0.2.7025~beta20.1
 _ZN7openmpt10module_extC1EPKvmRSoRKSt3mapINSt7__cxx1112basic_stringIcSt11char_traitsIcESaIcEEESA_St4lessISA_ESaISt4pairIKSA_SA_EEE@Base 0.2.7025~beta20.1
 _ZN7openmpt10module_extC1ERKS0_@Base 0.2.7025~beta20.1
 _ZN7openmpt10module_extC1ERKSt6vectorIcSaIcEERSoRKSt3mapINSt7__cxx1112basic_stringIcSt11char_traitsIcES2_EESC_St4lessISC_ESaISt4pairIKSC_SC_EEE@Base 0.2.7025~beta20.1
 _ZN7openmpt10module_extC1ERSiRSoRKSt3mapINSt7__cxx1112basic_stringIcSt11char_traitsIcESaIcEEES9_St4lessIS9_ESaISt4pairIKS9_S9_EEE@Base 0.2.7025~beta20.1
 _ZN7openmpt10module_extC2EPKcmRSoRKSt3mapINSt7__cxx1112basic_stringIcSt11char_traitsIcESaIcEEESA_St4lessISA_ESaISt4pairIKSA_SA_EEE@Base 0.2.7025~beta20.1
 _ZN7openmpt10module_extC2EPKvmRSoRKSt3mapINSt7__cxx1112basic_stringIcSt11char_traitsIcESaIcEEESA_St4lessISA_ESaISt4pairIKSA_SA_EEE@Base 0.2.7025~beta20.1
 _ZN7openmpt10module_extC2ERKS0_@Base 0.2.7025~beta20.1
 _ZN7openmpt10module_extC2ERKSt6vectorIcSaIcEERSoRKSt3mapINSt7__cxx1112basic_stringIcSt11char_traitsIcES2_EESC_St4lessISC_ESaISt4pairIKSC_SC_EEE@Base 0.2.7025~beta20.1
 _ZN7openmpt10module_extC2ERSiRSoRKSt3mapINSt7__cxx1112basic_stringIcSt11char_traitsIcESaIcEEES9_St4lessIS9_ESaISt4pairIKS9_S9_EEE@Base 0.2.7025~beta20.1
 _ZN7openmpt10module_extD0Ev@Base 0.2.7025~beta20.1
 _ZN7openmpt10module_extD1Ev@Base 0.2.7025~beta20.1
 _ZN7openmpt10module_extD2Ev@Base 0.2.7025~beta20.1
 _ZN7openmpt10module_extaSERKS0_@Base 0.2.7025~beta20.1
 _ZN7openmpt16get_core_versionEv@Base 0.2.7025~beta20.1
 _ZN7openmpt17probe_file_headerEmPKhm@Base 0.3.0
 _ZN7openmpt17probe_file_headerEmPKhmm@Base 0.3.0
 _ZN7openmpt17probe_file_headerEmRSi@Base 0.3.0
 _ZN7openmpt19get_library_versionEv@Base 0.2.7025~beta20.1
 _ZN7openmpt22could_open_probabilityERSidRSo@Base 0.3.0
 _ZN7openmpt22could_open_propabilityERSidRSo@Base 0.2.7025~beta20.1
 _ZN7openmpt22is_extension_supportedERKNSt7__cxx1112basic_stringIcSt11char_traitsIcESaIcEEE@Base 0.2.7025~beta20.1
 _ZN7openmpt24get_supported_extensionsB5cxx11Ev@Base 0.2.7025~beta20.1
 _ZN7openmpt38probe_file_header_get_recommended_sizeEv@Base 0.3.0
 _ZN7openmpt6module14select_subsongEi@Base 0.2.7025~beta20.1
 _ZN7openmpt6module16set_render_paramEii@Base 0.2.7025~beta20.1
 _ZN7openmpt6module16set_repeat_countEi@Base 0.2.7025~beta20.1
 _ZN7openmpt6module20set_position_secondsEd@Base 0.2.7025~beta20.1
 _ZN7openmpt6module21read_interleaved_quadEimPf@Base 0.2.7025~beta20.1
 _ZN7openmpt6module21read_interleaved_quadEimPs@Base 0.2.7025~beta20.1
 _ZN7openmpt6module22set_position_order_rowEii@Base 0.2.7025~beta20.1
 _ZN7openmpt6module23read_interleaved_stereoEimPf@Base 0.2.7025~beta20.1
 _ZN7openmpt6module23read_interleaved_stereoEimPs@Base 0.2.7025~beta20.1
 _ZN7openmpt6module4readEimPf@Base 0.2.7025~beta20.1
 _ZN7openmpt6module4readEimPfS1_@Base 0.2.7025~beta20.1
 _ZN7openmpt6module4readEimPfS1_S1_S1_@Base 0.2.7025~beta20.1
 _ZN7openmpt6module4readEimPs@Base 0.2.7025~beta20.1
 _ZN7openmpt6module4readEimPsS1_@Base 0.2.7025~beta20.1
 _ZN7openmpt6module4readEimPsS1_S1_S1_@Base 0.2.7025~beta20.1
 _ZN7openmpt6module7ctl_setERKNSt7__cxx1112basic_stringIcSt11char_traitsIcESaIcEEES8_@Base 0.2.7025~beta20.1
 _ZN7openmpt6module8set_implEPNS_11module_implE@Base 0.2.7025~beta20.1
 _ZN7openmpt6moduleC1EPKcS2_RSoRKSt3mapINSt7__cxx1112basic_stringIcSt11char_traitsIcESaIcEEESA_St4lessISA_ESaISt4pairIKSA_SA_EEE@Base 0.2.7025~beta20.1
 _ZN7openmpt6moduleC1EPKcmRSoRKSt3mapINSt7__cxx1112basic_stringIcSt11char_traitsIcESaIcEEESA_St4lessISA_ESaISt4pairIKSA_SA_EEE@Base 0.2.7025~beta20.1
 _ZN7openmpt6moduleC1EPKhS2_RSoRKSt3mapINSt7__cxx1112basic_stringIcSt11char_traitsIcESaIcEEESA_St4lessISA_ESaISt4pairIKSA_SA_EEE@Base 0.2.7025~beta20.1
 _ZN7openmpt6moduleC1EPKhmRSoRKSt3mapINSt7__cxx1112basic_stringIcSt11char_traitsIcESaIcEEESA_St4lessISA_ESaISt4pairIKSA_SA_EEE@Base 0.2.7025~beta20.1
 _ZN7openmpt6moduleC1EPKvmRSoRKSt3mapINSt7__cxx1112basic_stringIcSt11char_traitsIcESaIcEEESA_St4lessISA_ESaISt4pairIKSA_SA_EEE@Base 0.2.7025~beta20.1
 _ZN7openmpt6moduleC1ERKS0_@Base 0.2.7025~beta20.1
 _ZN7openmpt6moduleC1ERKSt6vectorIcSaIcEERSoRKSt3mapINSt7__cxx1112basic_stringIcSt11char_traitsIcES2_EESC_St4lessISC_ESaISt4pairIKSC_SC_EEE@Base 0.2.7025~beta20.1
 _ZN7openmpt6moduleC1ERKSt6vectorIhSaIhEERSoRKSt3mapINSt7__cxx1112basic_stringIcSt11char_traitsIcESaIcEEESD_St4lessISD_ESaISt4pairIKSD_SD_EEE@Base 0.2.7025~beta20.1
 _ZN7openmpt6moduleC1ERSiRSoRKSt3mapINSt7__cxx1112basic_stringIcSt11char_traitsIcESaIcEEES9_St4lessIS9_ESaISt4pairIKS9_S9_EEE@Base 0.2.7025~beta20.1
 _ZN7openmpt6moduleC1Ev@Base 0.2.7025~beta20.1
 _ZN7openmpt6moduleC2EPKcS2_RSoRKSt3mapINSt7__cxx1112basic_stringIcSt11char_traitsIcESaIcEEESA_St4lessISA_ESaISt4pairIKSA_SA_EEE@Base 0.2.7025~beta20.1
 _ZN7openmpt6moduleC2EPKcmRSoRKSt3mapINSt7__cxx1112basic_stringIcSt11char_traitsIcESaIcEEESA_St4lessISA_ESaISt4pairIKSA_SA_EEE@Base 0.2.7025~beta20.1
 _ZN7openmpt6moduleC2EPKhS2_RSoRKSt3mapINSt7__cxx1112basic_stringIcSt11char_traitsIcESaIcEEESA_St4lessISA_ESaISt4pairIKSA_SA_EEE@Base 0.2.7025~beta20.1
 _ZN7openmpt6moduleC2EPKhmRSoRKSt3mapINSt7__cxx1112basic_stringIcSt11char_traitsIcESaIcEEESA_St4lessISA_ESaISt4pairIKSA_SA_EEE@Base 0.2.7025~beta20.1
 _ZN7openmpt6moduleC2EPKvmRSoRKSt3mapINSt7__cxx1112basic_stringIcSt11char_traitsIcESaIcEEESA_St4lessISA_ESaISt4pairIKSA_SA_EEE@Base 0.2.7025~beta20.1
 _ZN7openmpt6moduleC2ERKS0_@Base 0.2.7025~beta20.1
 _ZN7openmpt6moduleC2ERKSt6vectorIcSaIcEERSoRKSt3mapINSt7__cxx1112basic_stringIcSt11char_traitsIcES2_EESC_St4lessISC_ESaISt4pairIKSC_SC_EEE@Base 0.2.7025~beta20.1
 _ZN7openmpt6moduleC2ERKSt6vectorIhSaIhEERSoRKSt3mapINSt7__cxx1112basic_stringIcSt11char_traitsIcESaIcEEESD_St4lessISD_ESaISt4pairIKSD_SD_EEE@Base 0.2.7025~beta20.1
 _ZN7openmpt6moduleC2ERSiRSoRKSt3mapINSt7__cxx1112basic_stringIcSt11char_traitsIcESaIcEEES9_St4lessIS9_ESaISt4pairIKS9_S9_EEE@Base 0.2.7025~beta20.1
 _ZN7openmpt6moduleC2Ev@Base 0.2.7025~beta20.1
 _ZN7openmpt6moduleD0Ev@Base 0.2.7025~beta20.1
 _ZN7openmpt6moduleD1Ev@Base 0.2.7025~beta20.1
 _ZN7openmpt6moduleD2Ev@Base 0.2.7025~beta20.1
 _ZN7openmpt6moduleaSERKS0_@Base 0.2.7025~beta20.1
 _ZN7openmpt6string3getERKNSt7__cxx1112basic_stringIcSt11char_traitsIcESaIcEEE@Base 0.2.7025~beta20.1
 _ZN7openmpt9exceptionC1EOS0_@Base 0.3.0
 _ZN7openmpt9exceptionC1ERKNSt7__cxx1112basic_stringIcSt11char_traitsIcESaIcEEE@Base 0.2.7025~beta20.1
 _ZN7openmpt9exceptionC1ERKS0_@Base 0.3.0
 _ZN7openmpt9exceptionC2EOS0_@Base 0.3.0
 _ZN7openmpt9exceptionC2ERKNSt7__cxx1112basic_stringIcSt11char_traitsIcESaIcEEE@Base 0.2.7025~beta20.1
 _ZN7openmpt9exceptionC2ERKS0_@Base 0.3.0
 _ZN7openmpt9exceptionD0Ev@Base 0.2.7025~beta20.1
 _ZN7openmpt9exceptionD1Ev@Base 0.2.7025~beta20.1
 _ZN7openmpt9exceptionD2Ev@Base 0.2.7025~beta20.1
 _ZN7openmpt9exceptionaSEOS0_@Base 0.3.0
 _ZN7openmpt9exceptionaSERKS0_@Base 0.3.0
 _ZNK7openmpt6module12get_metadataERKNSt7__cxx1112basic_stringIcSt11char_traitsIcESaIcEEE@Base 0.2.7025~beta20.1
 _ZNK7openmpt6module14get_num_ordersEv@Base 0.2.7025~beta20.1
 _ZNK7openmpt6module15get_current_rowEv@Base 0.2.7025~beta20.1
 _ZNK7openmpt6module15get_num_samplesEv@Base 0.2.7025~beta20.1
 _ZNK7openmpt6module15get_order_namesB5cxx11Ev@Base 0.2.7025~beta20.1
 _ZNK7openmpt6module16get_num_channelsEv@Base 0.2.7025~beta20.1
 _ZNK7openmpt6module16get_num_patternsEv@Base 0.2.7025~beta20.1
 _ZNK7openmpt6module16get_num_subsongsEv@Base 0.2.7025~beta20.1
 _ZNK7openmpt6module16get_render_paramEi@Base 0.2.7025~beta20.1
 _ZNK7openmpt6module16get_repeat_countEv@Base 0.2.7025~beta20.1
 _ZNK7openmpt6module16get_sample_namesB5cxx11Ev@Base 0.2.7025~beta20.1
 _ZNK7openmpt6module17get_channel_namesB5cxx11Ev@Base 0.2.7025~beta20.1
 _ZNK7openmpt6module17get_current_orderEv@Base 0.2.7025~beta20.1
 _ZNK7openmpt6module17get_current_speedEv@Base 0.2.7025~beta20.1
 _ZNK7openmpt6module17get_current_tempoEv@Base 0.2.7025~beta20.1
 _ZNK7openmpt6module17get_metadata_keysB5cxx11Ev@Base 0.2.7025~beta20.1
 _ZNK7openmpt6module17get_order_patternEi@Base 0.2.7025~beta20.1
 _ZNK7openmpt6module17get_pattern_namesB5cxx11Ev@Base 0.2.7025~beta20.1
 _ZNK7openmpt6module17get_subsong_namesB5cxx11Ev@Base 0.2.7025~beta20.1
 _ZNK7openmpt6module19get_current_patternEv@Base 0.2.7025~beta20.1
 _ZNK7openmpt6module19get_num_instrumentsEv@Base 0.2.7025~beta20.1
 _ZNK7openmpt6module20get_duration_secondsEv@Base 0.2.7025~beta20.1
 _ZNK7openmpt6module20get_instrument_namesB5cxx11Ev@Base 0.2.7025~beta20.1
 _ZNK7openmpt6module20get_pattern_num_rowsEi@Base 0.2.7025~beta20.1
 _ZNK7openmpt6module20get_position_secondsEv@Base 0.2.7025~beta20.1
 _ZNK7openmpt6module20get_selected_subsongEv@Base 0.3.0
 _ZNK7openmpt6module26format_pattern_row_channelB5cxx11Eiiimb@Base 0.2.7025~beta20.1
 _ZNK7openmpt6module27get_current_channel_vu_leftEi@Base 0.2.7025~beta20.1
 _ZNK7openmpt6module27get_current_channel_vu_monoEi@Base 0.2.7025~beta20.1
 _ZNK7openmpt6module28get_current_channel_vu_rightEi@Base 0.2.7025~beta20.1
 _ZNK7openmpt6module28get_current_playing_channelsEv@Base 0.2.7025~beta20.1
 _ZNK7openmpt6module29highlight_pattern_row_channelB5cxx11Eiiimb@Base 0.2.7025~beta20.1
 _ZNK7openmpt6module31get_pattern_row_channel_commandEiiii@Base 0.2.7025~beta20.1
 _ZNK7openmpt6module32get_current_channel_vu_rear_leftEi@Base 0.2.7025~beta20.1
 _ZNK7openmpt6module33get_current_channel_vu_rear_rightEi@Base 0.2.7025~beta20.1
 _ZNK7openmpt6module34format_pattern_row_channel_commandB5cxx11Eiiii@Base 0.2.7025~beta20.1
 _ZNK7openmpt6module37highlight_pattern_row_channel_commandB5cxx11Eiiii@Base 0.2.7025~beta20.1
 _ZNK7openmpt6module7ctl_getERKNSt7__cxx1112basic_stringIcSt11char_traitsIcESaIcEEE@Base 0.2.7025~beta20.1
 _ZNK7openmpt6module8get_ctlsB5cxx11Ev@Base 0.2.7025~beta20.1
 _ZNK7openmpt9exception4whatEv@Base 0.2.7025~beta20.1
 _ZNKSt5ctypeIcE8do_widenEc@Base 0.2.7025~beta20.1
 _ZNSt13_Bvector_baseISaIbEE13_M_deallocateEv@Base 0.2.7025~beta20.1
 _ZNSt16_Sp_counted_baseILN9__gnu_cxx12_Lock_policyE2EE10_M_releaseEv@Base 0.2.7025~beta20.1
 _ZNSt23mersenne_twister_engineImLm32ELm624ELm397ELm31ELm2567483615ELm11ELm4294967295ELm7ELm2636928640ELm15ELm4022730752ELm18ELm1812433253EE4seedISt8seed_seqEENSt9enable_ifIXsrSt8is_classIT_E5valueEvE4typeERS5_@Base 0.2.7025~beta20.1
 _ZNSt23mersenne_twister_engineImLm32ELm624ELm397ELm31ELm2567483615ELm11ELm4294967295ELm7ELm2636928640ELm15ELm4022730752ELm18ELm1812433253EEclEv@Base 0.2.7025~beta20.1
 _ZNSt26subtract_with_carry_engineImLm48ELm5ELm12EEclEv@Base 0.2.7025~beta20.1
 _ZNSt4pairINSt7__cxx1112basic_stringIcSt11char_traitsIcESaIcEEES5_EC1IRS5_S8_Lb1EEEOT_OT0_@Base 0.2.7025~beta20.1
 _ZNSt4pairINSt7__cxx1112basic_stringIcSt11char_traitsIcESaIcEEES5_EC2IRS5_S8_Lb1EEEOT_OT0_@Base 0.2.7025~beta20.1
 _ZNSt6vectorINSt7__cxx1112basic_stringIcSt11char_traitsIcESaIcEEESaIS5_EE12emplace_backIJS5_EEEvDpOT_@Base 0.2.7025~beta20.1
 _ZNSt6vectorINSt7__cxx1112basic_stringIcSt11char_traitsIcESaIcEEESaIS5_EE17_M_realloc_insertIJRKS5_EEEvN9__gnu_cxx17__normal_iteratorIPS5_S7_EEDpOT_@Base 0.2.7025~beta20.1
 _ZNSt6vectorINSt7__cxx1112basic_stringIcSt11char_traitsIcESaIcEEESaIS5_EE17_M_realloc_insertIJS5_EEEvN9__gnu_cxx17__normal_iteratorIPS5_S7_EEDpOT_@Base 0.2.7025~beta20.1
 _ZNSt6vectorINSt7__cxx1112basic_stringIcSt11char_traitsIcESaIcEEESaIS5_EED1Ev@Base 0.2.7025~beta20.1
 _ZNSt6vectorINSt7__cxx1112basic_stringIcSt11char_traitsIcESaIcEEESaIS5_EED2Ev@Base 0.2.7025~beta20.1
 _ZNSt6vectorIPKcSaIS1_EE17_M_realloc_insertIJRKS1_EEEvN9__gnu_cxx17__normal_iteratorIPS1_S3_EEDpOT_@Base 0.2.7025~beta20.1
 _ZNSt6vectorIPfSaIS0_EE17_M_default_appendEm@Base 0.2.7025~beta20.1
 _ZNSt6vectorIS_IbSaIbEESaIS1_EE17_M_default_appendEm@Base 0.2.7025~beta20.1
 _ZNSt6vectorIS_IbSaIbEESaIS1_EEaSERKS3_@Base 0.2.7025~beta20.1
 _ZNSt6vectorISt4pairIN7OpenMPT8LogLevelENSt7__cxx1112basic_stringIcSt11char_traitsIcESaIcEEEESaIS9_EE17_M_realloc_insertIJS9_EEEvN9__gnu_cxx17__normal_iteratorIPS9_SB_EEDpOT_@Base 0.2.7025~beta20.1
 _ZNSt6vectorISt4pairIN7OpenMPT8LogLevelENSt7__cxx1112basic_stringIcSt11char_traitsIcESaIcEEEESaIS9_EED1Ev@Base 0.2.7025~beta20.1
 _ZNSt6vectorISt4pairIN7OpenMPT8LogLevelENSt7__cxx1112basic_stringIcSt11char_traitsIcESaIcEEEESaIS9_EED2Ev@Base 0.2.7025~beta20.1
 _ZNSt6vectorIaSaIaEE14_M_fill_assignEmRKa@Base 0.2.7025~beta20.1
 _ZNSt6vectorIbSaIbEE14_M_fill_insertESt13_Bit_iteratormb@Base 0.2.7025~beta20.1
 _ZNSt6vectorIcSaIcEE15_M_range_insertIN9__gnu_cxx17__normal_iteratorIPcNSt7__cxx1112basic_stringIcSt11char_traitsIcES0_EEEEEEvNS4_IS5_S1_EET_SD_St20forward_iterator_tag@Base 0.2.7025~beta20.1
 _ZNSt6vectorIcSaIcEE15_M_range_insertIPKhEEvN9__gnu_cxx17__normal_iteratorIPcS1_EET_S9_St20forward_iterator_tag@Base 0.2.7025~beta20.1
 _ZNSt6vectorIcSaIcEE17_M_default_appendEm@Base 0.2.7025~beta20.1
 _ZNSt6vectorIcSaIcEE6resizeEm@Base 0.2.7025~beta20.1
 _ZNSt6vectorIcSaIcEE7reserveEm@Base 0.2.7025~beta20.1
 _ZNSt6vectorIfSaIfEE14_M_fill_assignEmRKf@Base 0.2.7025~beta20.1
 _ZNSt6vectorIfSaIfEE14_M_fill_insertEN9__gnu_cxx17__normal_iteratorIPfS1_EEmRKf@Base 0.2.7025~beta20.1
 _ZNSt6vectorIfSaIfEE17_M_default_appendEm@Base 0.2.7025~beta20.1
 _ZNSt6vectorIfSaIfEE17_M_realloc_insertIJRKfEEEvN9__gnu_cxx17__normal_iteratorIPfS1_EEDpOT_@Base 0.2.7025~beta20.1
 _ZNSt6vectorIfSaIfEE17_M_realloc_insertIJfEEEvN9__gnu_cxx17__normal_iteratorIPfS1_EEDpOT_@Base 0.2.7025~beta20.1
 _ZNSt6vectorIhSaIhEE14_M_fill_assignEmRKh@Base 0.2.7025~beta20.1
 _ZNSt6vectorIhSaIhEE14_M_fill_insertEN9__gnu_cxx17__normal_iteratorIPhS1_EEmRKh@Base 0.2.7025~beta20.1
 _ZNSt6vectorIhSaIhEE17_M_default_appendEm@Base 0.2.7025~beta20.1
 _ZNSt6vectorIhSaIhEE6resizeEmRKh@Base 0.2.7025~beta20.1
 _ZNSt6vectorIhSaIhEEC1EmRKS0_@Base 0.2.7025~beta20.1
 _ZNSt6vectorIhSaIhEEC2EmRKS0_@Base 0.2.7025~beta20.1
 _ZNSt6vectorIiSaIiEE17_M_realloc_insertIJRKiEEEvN9__gnu_cxx17__normal_iteratorIPiS1_EEDpOT_@Base 0.2.7025~beta20.1
 _ZNSt6vectorIjSaIjEE12emplace_backIJjEEEvDpOT_@Base 0.2.7025~beta20.1
 _ZNSt6vectorIjSaIjEE14_M_fill_insertEN9__gnu_cxx17__normal_iteratorIPjS1_EEmRKj@Base 0.2.7025~beta20.1
 _ZNSt6vectorIjSaIjEE17_M_realloc_insertIJRKjEEEvN9__gnu_cxx17__normal_iteratorIPjS1_EEDpOT_@Base 0.2.7025~beta20.1
 _ZNSt6vectorIjSaIjEE17_M_realloc_insertIJjEEEvN9__gnu_cxx17__normal_iteratorIPjS1_EEDpOT_@Base 0.2.7025~beta20.1
 _ZNSt6vectorIjSaIjEE7reserveEm@Base 0.2.7025~beta20.1
 _ZNSt6vectorIjSaIjEEaSERKS1_@Base 0.2.7025~beta20.1
 _ZNSt6vectorItSaItEE14_M_fill_insertEN9__gnu_cxx17__normal_iteratorIPtS1_EEmRKt@Base 0.2.7025~beta20.1
 _ZNSt6vectorItSaItEE17_M_realloc_insertIJRKtEEEvN9__gnu_cxx17__normal_iteratorIPtS1_EEDpOT_@Base 0.2.7025~beta20.1
 _ZNSt6vectorItSaItEE8_M_eraseEN9__gnu_cxx17__normal_iteratorIPtS1_EES5_@Base 0.2.7025~beta20.1
 _ZNSt7__cxx1115basic_stringbufIcSt11char_traitsIcESaIcEED0Ev@Base 0.2.7025~beta20.1
 _ZNSt7__cxx1115basic_stringbufIcSt11char_traitsIcESaIcEED1Ev@Base 0.2.7025~beta20.1
 _ZNSt7__cxx1115basic_stringbufIcSt11char_traitsIcESaIcEED2Ev@Base 0.2.7025~beta20.1
 _ZNSt8_Rb_treeINSt7__cxx1112basic_stringIcSt11char_traitsIcESaIcEEESt4pairIKS5_S5_ESt10_Select1stIS8_ESt4lessIS5_ESaIS8_EE11equal_rangeERS7_@Base 0.2.7025~beta20.1
 _ZNSt8_Rb_treeINSt7__cxx1112basic_stringIcSt11char_traitsIcESaIcEEESt4pairIKS5_S5_ESt10_Select1stIS8_ESt4lessIS5_ESaIS8_EE24_M_get_insert_unique_posERS7_@Base 0.2.7025~beta20.1
 _ZNSt8_Rb_treeINSt7__cxx1112basic_stringIcSt11char_traitsIcESaIcEEESt4pairIKS5_S5_ESt10_Select1stIS8_ESt4lessIS5_ESaIS8_EE29_M_get_insert_hint_unique_posESt23_Rb_tree_const_iteratorIS8_ERS7_@Base 0.2.7025~beta20.1
 _ZNSt8_Rb_treeINSt7__cxx1112basic_stringIcSt11char_traitsIcESaIcEEESt4pairIKS5_S5_ESt10_Select1stIS8_ESt4lessIS5_ESaIS8_EE5eraseERS7_@Base 0.2.7025~beta20.1
 _ZNSt8_Rb_treeINSt7__cxx1112basic_stringIcSt11char_traitsIcESaIcEEESt4pairIKS5_S5_ESt10_Select1stIS8_ESt4lessIS5_ESaIS8_EE8_M_eraseEPSt13_Rb_tree_nodeIS8_E@Base 0.2.7025~beta20.1
 _ZNSt8_Rb_treeISt4pairIhtES0_IKS1_tESt10_Select1stIS3_ESt4lessIS1_ESaIS3_EE24_M_get_insert_unique_posERS2_@Base 0.2.7025~beta20.1
 _ZNSt8_Rb_treeISt4pairIhtES0_IKS1_tESt10_Select1stIS3_ESt4lessIS1_ESaIS3_EE29_M_get_insert_hint_unique_posESt23_Rb_tree_const_iteratorIS3_ERS2_@Base 0.2.7025~beta20.1
 _ZNSt8_Rb_treeISt4pairIhtES0_IKS1_tESt10_Select1stIS3_ESt4lessIS1_ESaIS3_EE8_M_eraseEPSt13_Rb_tree_nodeIS3_E@Base 0.2.7025~beta20.1
 _ZNSt8_Rb_treeIdSt4pairIKdiESt10_Select1stIS2_ESt4lessIdESaIS2_EE24_M_get_insert_unique_posERS1_@Base 0.2.7025~beta20.1
 _ZNSt8_Rb_treeIdSt4pairIKdiESt10_Select1stIS2_ESt4lessIdESaIS2_EE29_M_get_insert_hint_unique_posESt23_Rb_tree_const_iteratorIS2_ERS1_@Base 0.2.7025~beta20.1
 _ZNSt8_Rb_treeIdSt4pairIKdiESt10_Select1stIS2_ESt4lessIdESaIS2_EE8_M_eraseEPSt13_Rb_tree_nodeIS2_E@Base 0.2.7025~beta20.1
 _ZNSt8_Rb_treeIsSt4pairIKsNSt7__cxx1112basic_stringIcSt11char_traitsIcESaIcEEEESt10_Select1stIS8_ESt4lessIsESaIS8_EE24_M_get_insert_unique_posERS1_@Base 0.2.7025~beta20.1
 _ZNSt8_Rb_treeIsSt4pairIKsNSt7__cxx1112basic_stringIcSt11char_traitsIcESaIcEEEESt10_Select1stIS8_ESt4lessIsESaIS8_EE29_M_get_insert_hint_unique_posESt23_Rb_tree_const_iteratorIS8_ERS1_@Base 0.2.7025~beta20.1
 _ZNSt8_Rb_treeIsSt4pairIKsNSt7__cxx1112basic_stringIcSt11char_traitsIcESaIcEEEESt10_Select1stIS8_ESt4lessIsESaIS8_EE8_M_eraseEPSt13_Rb_tree_nodeIS8_E@Base 0.2.7025~beta20.1
 _ZNSt8_Rb_treeItSt4pairIKtNSt7__cxx1112basic_stringIcSt11char_traitsIcESaIcEEEESt10_Select1stIS8_ESt4lessItESaIS8_EE24_M_get_insert_unique_posERS1_@Base 0.2.7025~beta20.1
 _ZNSt8_Rb_treeItSt4pairIKtNSt7__cxx1112basic_stringIcSt11char_traitsIcESaIcEEEESt10_Select1stIS8_ESt4lessItESaIS8_EE29_M_get_insert_hint_unique_posESt23_Rb_tree_const_iteratorIS8_ERS1_@Base 0.2.7025~beta20.1
 _ZNSt8_Rb_treeItSt4pairIKtNSt7__cxx1112basic_stringIcSt11char_traitsIcESaIcEEEESt10_Select1stIS8_ESt4lessItESaIS8_EE8_M_eraseEPSt13_Rb_tree_nodeIS8_E@Base 0.2.7025~beta20.1
 _ZNSt8_Rb_treeIttSt9_IdentityItESt4lessItESaItEE8_M_eraseEPSt13_Rb_tree_nodeItE@Base 0.2.7025~beta20.1
 _ZNSt8seed_seq8generateIPjEEvT_S2_@Base 0.2.7025~beta20.1
 _ZSteqIcEN9__gnu_cxx11__enable_ifIXsrSt9__is_charIT_E7__valueEbE6__typeERKNSt7__cxx1112basic_stringIS3_St11char_traitsIS3_ESaIS3_EEESE_@Base 0.2.7025~beta20.1
 _ZStplIcSt11char_traitsIcESaIcEENSt7__cxx1112basic_stringIT_T0_T1_EEOS8_S9_@Base 0.2.7025~beta20.1
 _ZStplIcSt11char_traitsIcESaIcEENSt7__cxx1112basic_stringIT_T0_T1_EEPKS5_RKS8_@Base 0.2.7025~beta20.1
 _ZTIN7openmpt10module_extE@Base 0.2.7025~beta20.1
 _ZTIN7openmpt6moduleE@Base 0.2.7025~beta20.1
 _ZTIN7openmpt9exceptionE@Base 0.2.7025~beta20.1
 _ZTISt11_Mutex_baseILN9__gnu_cxx12_Lock_policyE2EE@Base 0.2.7025~beta20.1
 _ZTISt16_Sp_counted_baseILN9__gnu_cxx12_Lock_policyE2EE@Base 0.2.7025~beta20.1
 _ZTISt19_Sp_make_shared_tag@Base 0.2.7025~beta20.1
 _ZTSN7openmpt10module_extE@Base 0.2.7025~beta20.1
 _ZTSN7openmpt6moduleE@Base 0.2.7025~beta20.1
 _ZTSN7openmpt9exceptionE@Base 0.2.7025~beta20.1
 _ZTSSt11_Mutex_baseILN9__gnu_cxx12_Lock_policyE2EE@Base 0.2.7025~beta20.1
 _ZTSSt16_Sp_counted_baseILN9__gnu_cxx12_Lock_policyE2EE@Base 0.2.7025~beta20.1
 _ZTSSt19_Sp_make_shared_tag@Base 0.2.7025~beta20.1
 _ZTVN7openmpt10module_extE@Base 0.2.7025~beta20.1
 _ZTVN7openmpt6moduleE@Base 0.2.7025~beta20.1
 _ZTVN7openmpt9exceptionE@Base 0.2.7025~beta20.1
 openmpt_could_open_probability2@Base 0.3.0
 openmpt_could_open_probability@Base 0.3.0
 openmpt_could_open_propability@Base 0.2.7025~beta20.1
 openmpt_error_func_default@Base 0.3.0
 openmpt_error_func_errno@Base 0.3.0
 openmpt_error_func_errno_userdata@Base 0.3.0
 openmpt_error_func_ignore@Base 0.3.0
 openmpt_error_func_log@Base 0.3.0
 openmpt_error_func_store@Base 0.3.0
 openmpt_error_is_transient@Base 0.3.0
 openmpt_error_string@Base 0.3.0
 openmpt_free_string@Base 0.2.7025~beta20.1
 openmpt_get_core_version@Base 0.2.7025~beta20.1
 openmpt_get_library_version@Base 0.2.7025~beta20.1
 openmpt_get_string@Base 0.2.7025~beta20.1
 openmpt_get_supported_extensions@Base 0.2.7025~beta20.1
 openmpt_is_extension_supported@Base 0.2.7025~beta20.1
 openmpt_log_func_default@Base 0.2.7025~beta20.1
 openmpt_log_func_silent@Base 0.2.7025~beta20.1
 openmpt_module_create2@Base 0.3.0
 openmpt_module_create@Base 0.2.7025~beta20.1
 openmpt_module_create_from_memory2@Base 0.3.0
 openmpt_module_create_from_memory@Base 0.2.7025~beta20.1
 openmpt_module_ctl_get@Base 0.2.7025~beta20.1
 openmpt_module_ctl_set@Base 0.2.7025~beta20.1
 openmpt_module_destroy@Base 0.2.7025~beta20.1
 openmpt_module_error_clear@Base 0.3.0
 openmpt_module_error_get_last@Base 0.3.0
 openmpt_module_error_get_last_message@Base 0.3.0
 openmpt_module_error_set_last@Base 0.3.0
 openmpt_module_ext_create@Base 0.3.0
 openmpt_module_ext_create_from_memory@Base 0.3.0
 openmpt_module_ext_destroy@Base 0.3.0
 openmpt_module_ext_get_interface@Base 0.3.0
 openmpt_module_ext_get_module@Base 0.3.0
 openmpt_module_format_pattern_row_channel@Base 0.2.7025~beta20.1
 openmpt_module_format_pattern_row_channel_command@Base 0.2.7025~beta20.1
 openmpt_module_get_channel_name@Base 0.2.7025~beta20.1
 openmpt_module_get_ctls@Base 0.2.7025~beta20.1
 openmpt_module_get_current_channel_vu_left@Base 0.2.7025~beta20.1
 openmpt_module_get_current_channel_vu_mono@Base 0.2.7025~beta20.1
 openmpt_module_get_current_channel_vu_rear_left@Base 0.2.7025~beta20.1
 openmpt_module_get_current_channel_vu_rear_right@Base 0.2.7025~beta20.1
 openmpt_module_get_current_channel_vu_right@Base 0.2.7025~beta20.1
 openmpt_module_get_current_order@Base 0.2.7025~beta20.1
 openmpt_module_get_current_pattern@Base 0.2.7025~beta20.1
 openmpt_module_get_current_playing_channels@Base 0.2.7025~beta20.1
 openmpt_module_get_current_row@Base 0.2.7025~beta20.1
 openmpt_module_get_current_speed@Base 0.2.7025~beta20.1
 openmpt_module_get_current_tempo@Base 0.2.7025~beta20.1
 openmpt_module_get_duration_seconds@Base 0.2.7025~beta20.1
 openmpt_module_get_instrument_name@Base 0.2.7025~beta20.1
 openmpt_module_get_metadata@Base 0.2.7025~beta20.1
 openmpt_module_get_metadata_keys@Base 0.2.7025~beta20.1
 openmpt_module_get_num_channels@Base 0.2.7025~beta20.1
 openmpt_module_get_num_instruments@Base 0.2.7025~beta20.1
 openmpt_module_get_num_orders@Base 0.2.7025~beta20.1
 openmpt_module_get_num_patterns@Base 0.2.7025~beta20.1
 openmpt_module_get_num_samples@Base 0.2.7025~beta20.1
 openmpt_module_get_num_subsongs@Base 0.2.7025~beta20.1
 openmpt_module_get_order_name@Base 0.2.7025~beta20.1
 openmpt_module_get_order_pattern@Base 0.2.7025~beta20.1
 openmpt_module_get_pattern_name@Base 0.2.7025~beta20.1
 openmpt_module_get_pattern_num_rows@Base 0.2.7025~beta20.1
 openmpt_module_get_pattern_row_channel_command@Base 0.2.7025~beta20.1
 openmpt_module_get_position_seconds@Base 0.2.7025~beta20.1
 openmpt_module_get_render_param@Base 0.2.7025~beta20.1
 openmpt_module_get_repeat_count@Base 0.2.7025~beta20.1
 openmpt_module_get_sample_name@Base 0.2.7025~beta20.1
 openmpt_module_get_selected_subsong@Base 0.3.0
 openmpt_module_get_subsong_name@Base 0.2.7025~beta20.1
 openmpt_module_highlight_pattern_row_channel@Base 0.2.7025~beta20.1
 openmpt_module_highlight_pattern_row_channel_command@Base 0.2.7025~beta20.1
 openmpt_module_read_float_mono@Base 0.2.7025~beta20.1
 openmpt_module_read_float_quad@Base 0.2.7025~beta20.1
 openmpt_module_read_float_stereo@Base 0.2.7025~beta20.1
 openmpt_module_read_interleaved_float_quad@Base 0.2.7025~beta20.1
 openmpt_module_read_interleaved_float_stereo@Base 0.2.7025~beta20.1
 openmpt_module_read_interleaved_quad@Base 0.2.7025~beta20.1
 openmpt_module_read_interleaved_stereo@Base 0.2.7025~beta20.1
 openmpt_module_read_mono@Base 0.2.7025~beta20.1
 openmpt_module_read_quad@Base 0.2.7025~beta20.1
 openmpt_module_read_stereo@Base 0.2.7025~beta20.1
 openmpt_module_select_subsong@Base 0.2.7025~beta20.1
 openmpt_module_set_error_func@Base 0.3.0
 openmpt_module_set_log_func@Base 0.3.0
 openmpt_module_set_position_order_row@Base 0.2.7025~beta20.1
 openmpt_module_set_position_seconds@Base 0.2.7025~beta20.1
 openmpt_module_set_render_param@Base 0.2.7025~beta20.1
 openmpt_module_set_repeat_count@Base 0.2.7025~beta20.1
 openmpt_probe_file_header@Base 0.3.0
 openmpt_probe_file_header_from_stream@Base 0.3.0
 openmpt_probe_file_header_get_recommended_size@Base 0.3.0
 openmpt_probe_file_header_without_filesize@Base 0.3.0
