libsnapd-qt.so.1 libsnapd-qt1 #MINVER#
 _Z5loginRK7QStringS1_@Base 1.8
 _Z5loginRK7QStringS1_S1_@Base 0
 _ZN10QByteArrayD1Ev@Base 0
 _ZN10QByteArrayD2Ev@Base 0
 _ZN10QSnapdIcon11qt_metacallEN11QMetaObject4CallEiPPv@Base 0
 _ZN10QSnapdIcon11qt_metacastEPKc@Base 0
 _ZN10QSnapdIcon16staticMetaObjectE@Base 0
 _ZN10QSnapdIconC1EPvP7QObject@Base 1.5
 _ZN10QSnapdIconC2EPvP7QObject@Base 1.5
 _ZN10QSnapdIconD0Ev@Base 1.5
 _ZN10QSnapdIconD1Ev@Base 1.5
 _ZN10QSnapdIconD2Ev@Base 1.5
 _ZN10QSnapdPlug11qt_metacallEN11QMetaObject4CallEiPPv@Base 0
 _ZN10QSnapdPlug11qt_metacastEPKc@Base 0
 _ZN10QSnapdPlug16staticMetaObjectE@Base 0
 _ZN10QSnapdPlugC1EPvP7QObject@Base 1.8
 _ZN10QSnapdPlugC2EPvP7QObject@Base 1.8
 _ZN10QSnapdPlugD0Ev@Base 1.8
 _ZN10QSnapdPlugD1Ev@Base 1.8
 _ZN10QSnapdPlugD2Ev@Base 1.8
 _ZN10QSnapdSlot11qt_metacallEN11QMetaObject4CallEiPPv@Base 0
 _ZN10QSnapdSlot11qt_metacastEPKc@Base 0
 _ZN10QSnapdSlot16staticMetaObjectE@Base 0
 _ZN10QSnapdSlotC1EPvP7QObject@Base 1.8
 _ZN10QSnapdSlotC2EPvP7QObject@Base 1.8
 _ZN10QSnapdSlotD0Ev@Base 1.8
 _ZN10QSnapdSlotD1Ev@Base 1.8
 _ZN10QSnapdSlotD2Ev@Base 1.8
 _ZN10QSnapdSnap11qt_metacallEN11QMetaObject4CallEiPPv@Base 0
 _ZN10QSnapdSnap11qt_metacastEPKc@Base 0
 _ZN10QSnapdSnap16staticMetaObjectE@Base 0
 _ZN10QSnapdSnapC1EPvP7QObject@Base 1.5
 _ZN10QSnapdSnapC2EPvP7QObject@Base 1.5
 _ZN10QSnapdSnapD0Ev@Base 1.5
 _ZN10QSnapdSnapD1Ev@Base 1.5
 _ZN10QSnapdSnapD2Ev@Base 1.5
 _ZN10QSnapdTask11qt_metacallEN11QMetaObject4CallEiPPv@Base 0
 _ZN10QSnapdTask11qt_metacastEPKc@Base 0
 _ZN10QSnapdTask16staticMetaObjectE@Base 0
 _ZN10QSnapdTaskC1EPvP7QObject@Base 1.5
 _ZN10QSnapdTaskC2EPvP7QObject@Base 1.5
 _ZN10QSnapdTaskD0Ev@Base 1.5
 _ZN10QSnapdTaskD1Ev@Base 1.5
 _ZN10QSnapdTaskD2Ev@Base 1.5
 _ZN11QSnapdAlias11qt_metacallEN11QMetaObject4CallEiPPv@Base 0
 _ZN11QSnapdAlias11qt_metacastEPKc@Base 0
 _ZN11QSnapdAlias16staticMetaObjectE@Base 0
 _ZN11QSnapdAliasC1EPvP7QObject@Base 1.8
 _ZN11QSnapdAliasC2EPvP7QObject@Base 1.8
 _ZN11QSnapdAliasD0Ev@Base 1.8
 _ZN11QSnapdAliasD1Ev@Base 1.8
 _ZN11QSnapdAliasD2Ev@Base 1.8
 _ZN11QSnapdEnums11qt_metacallEN11QMetaObject4CallEiPPv@Base 0
 _ZN11QSnapdEnums11qt_metacastEPKc@Base 0
 _ZN11QSnapdEnums16staticMetaObjectE@Base 0
 _ZN11QSnapdEnumsD0Ev@Base 1.24
 _ZN11QSnapdEnumsD1Ev@Base 1.24
 _ZN11QSnapdEnumsD2Ev@Base 1.24
 _ZN11QSnapdMedia11qt_metacallEN11QMetaObject4CallEiPPv@Base 0
 _ZN11QSnapdMedia11qt_metacastEPKc@Base 0
 _ZN11QSnapdMedia16staticMetaObjectE@Base 0
 _ZN11QSnapdMediaC1EPvP7QObject@Base 1.45
 _ZN11QSnapdMediaC2EPvP7QObject@Base 1.45
 _ZN11QSnapdMediaD0Ev@Base 1.45
 _ZN11QSnapdMediaD1Ev@Base 1.45
 _ZN11QSnapdMediaD2Ev@Base 1.45
 _ZN11QSnapdPrice11qt_metacallEN11QMetaObject4CallEiPPv@Base 0
 _ZN11QSnapdPrice11qt_metacastEPKc@Base 0
 _ZN11QSnapdPrice16staticMetaObjectE@Base 0
 _ZN11QSnapdPriceC1EPvP7QObject@Base 1.5
 _ZN11QSnapdPriceC2EPvP7QObject@Base 1.5
 _ZN11QSnapdPriceD0Ev@Base 1.5
 _ZN11QSnapdPriceD1Ev@Base 1.5
 _ZN11QSnapdPriceD2Ev@Base 1.5
 _ZN12QSnapdChange11qt_metacallEN11QMetaObject4CallEiPPv@Base 0
 _ZN12QSnapdChange11qt_metacastEPKc@Base 0
 _ZN12QSnapdChange16staticMetaObjectE@Base 0
 _ZN12QSnapdChangeC1EPvP7QObject@Base 1.5
 _ZN12QSnapdChangeC2EPvP7QObject@Base 1.5
 _ZN12QSnapdChangeD0Ev@Base 1.5
 _ZN12QSnapdChangeD1Ev@Base 1.5
 _ZN12QSnapdChangeD2Ev@Base 1.5
 _ZN12QSnapdClient10createUserERK7QString6QFlagsINS_14CreateUserFlagEE@Base 1.25
 _ZN12QSnapdClient10createUserERK7QString@Base 1.25
 _ZN12QSnapdClient10getAliasesEv@Base 1.8
 _ZN12QSnapdClient10getChangesENS_12ChangeFilterE@Base 1.29
 _ZN12QSnapdClient10getChangesENS_12ChangeFilterERK7QString@Base 1.29
 _ZN12QSnapdClient10getChangesERK7QString@Base 1.29
 _ZN12QSnapdClient10getChangesEv@Base 1.29
 _ZN12QSnapdClient10refreshAllEv@Base 1.5
 _ZN12QSnapdClient10runSnapCtlE7QStringRK11QStringList@Base 1.8
 _ZN12QSnapdClient11abortChangeERK7QString@Base 1.30
 _ZN12QSnapdClient11createUsersEv@Base 1.25
 _ZN12QSnapdClient11findSectionE6QFlagsINS_8FindFlagEERK7QStringS5_@Base 1.7
 _ZN12QSnapdClient11findSectionERK7QStringS2_@Base 1.32
 _ZN12QSnapdClient11getSectionsEv@Base 1.8
 _ZN12QSnapdClient11getSnapConfERK7QString@Base 1.48
 _ZN12QSnapdClient11getSnapConfERK7QStringRK11QStringList@Base 1.48
 _ZN12QSnapdClient11qt_metacallEN11QMetaObject4CallEiPPv@Base 0
 _ZN12QSnapdClient11qt_metacastEPKc@Base 0
 _ZN12QSnapdClient11setAuthDataEP14QSnapdAuthData@Base 1.8
 _ZN12QSnapdClient11setSnapConfERK7QStringRK5QHashIS0_8QVariantE@Base 1.48
 _ZN12QSnapdClient12resetAliasesE7QStringRK11QStringList@Base 1.8
 _ZN12QSnapdClient12setUserAgentERK7QString@Base 1.16
 _ZN12QSnapdClient13addAssertionsERK11QStringList@Base 1.8
 _ZN12QSnapdClient13enableAliasesE7QStringRK11QStringList@Base 1.8
 _ZN12QSnapdClient13getAssertionsERK7QString@Base 1.8
 _ZN12QSnapdClient13getInterfacesEv@Base 1.5
 _ZN12QSnapdClient13setSocketPathERK7QString@Base 1.24
 _ZN12QSnapdClient13switchChannelERK7QStringS2_@Base 1.26
 _ZN12QSnapdClient14disableAliasesE7QStringRK11QStringList@Base 1.8
 _ZN12QSnapdClient14getConnectionsE6QFlagsINS_18GetConnectionsFlagEE@Base 1.49
 _ZN12QSnapdClient14getConnectionsE6QFlagsINS_18GetConnectionsFlagEERK7QStringS5_@Base 1.49
 _ZN12QSnapdClient14getConnectionsERK7QStringS2_@Base 1.49
 _ZN12QSnapdClient14getConnectionsEv@Base 1.48
 _ZN12QSnapdClient14getInterfaces2E6QFlagsINS_13InterfaceFlagEE@Base 1.48
 _ZN12QSnapdClient14getInterfaces2E6QFlagsINS_13InterfaceFlagEERK11QStringList@Base 1.48
 _ZN12QSnapdClient14getInterfaces2ERK11QStringList@Base 1.48
 _ZN12QSnapdClient14getInterfaces2Ev@Base 1.48
 _ZN12QSnapdClient15findRefreshableEv@Base 1.5
 _ZN12QSnapdClient16connectInterfaceERK7QStringS2_S2_S2_@Base 1.5
 _ZN12QSnapdClient16staticMetaObjectE@Base 0
 _ZN12QSnapdClient19disconnectInterfaceERK7QStringS2_S2_S2_@Base 1.5
 _ZN12QSnapdClient19setAllowInteractionEb@Base 1.19
 _ZN12QSnapdClient20getSystemInformationEv@Base 1.5
 _ZN12QSnapdClient3buyERK7QStringdS2_@Base 1.5
 _ZN12QSnapdClient4findE6QFlagsINS_8FindFlagEE@Base 1.8
 _ZN12QSnapdClient4findE6QFlagsINS_8FindFlagEERK7QString@Base 1.5
 _ZN12QSnapdClient4findERK7QString@Base 1.32
 _ZN12QSnapdClient4listEv@Base 1.5
 _ZN12QSnapdClient5aliasERK7QStringS2_S2_@Base 1.25
 _ZN12QSnapdClient5loginERK7QStringS2_@Base 1.8
 _ZN12QSnapdClient5loginERK7QStringS2_S2_@Base 1.5
 _ZN12QSnapdClient6enableERK7QString@Base 1.5
 _ZN12QSnapdClient6preferERK7QString@Base 1.25
 _ZN12QSnapdClient6removeERK7QString@Base 1.5
 _ZN12QSnapdClient7connectEv@Base 1.5
 _ZN12QSnapdClient7disableERK7QString@Base 1.5
 _ZN12QSnapdClient7getAppsE6QFlagsINS_11GetAppsFlagEE@Base 1.25
 _ZN12QSnapdClient7getAppsE6QFlagsINS_11GetAppsFlagEERK11QStringList@Base 1.45
 _ZN12QSnapdClient7getAppsE6QFlagsINS_11GetAppsFlagEERK7QString@Base 1.45
 _ZN12QSnapdClient7getAppsERK11QStringList@Base 1.45
 _ZN12QSnapdClient7getAppsERK7QString@Base 1.45
 _ZN12QSnapdClient7getAppsEv@Base 1.25
 _ZN12QSnapdClient7getIconERK7QString@Base 1.5
 _ZN12QSnapdClient7getSnapERK7QString@Base 1.42
 _ZN12QSnapdClient7installE6QFlagsINS_11InstallFlagEEP9QIODevice@Base 1.9
 _ZN12QSnapdClient7installE6QFlagsINS_11InstallFlagEERK7QString@Base 1.12
 _ZN12QSnapdClient7installE6QFlagsINS_11InstallFlagEERK7QStringS5_@Base 1.12
 _ZN12QSnapdClient7installE6QFlagsINS_11InstallFlagEERK7QStringS5_S5_@Base 1.12
 _ZN12QSnapdClient7installEP9QIODevice@Base 1.9
 _ZN12QSnapdClient7installERK7QString@Base 1.8
 _ZN12QSnapdClient7installERK7QStringS2_@Base 1.5
 _ZN12QSnapdClient7installERK7QStringS2_S2_@Base 1.12
 _ZN12QSnapdClient7listOneERK7QString@Base 1.5
 _ZN12QSnapdClient7refreshERK7QString@Base 1.8
 _ZN12QSnapdClient7refreshERK7QStringS2_@Base 1.5
 _ZN12QSnapdClient7trySnapERK7QString@Base 1.9
 _ZN12QSnapdClient7unaliasERK7QString@Base 1.25
 _ZN12QSnapdClient7unaliasERK7QStringS2_@Base 1.25
 _ZN12QSnapdClient8authDataEv@Base 1.8
 _ZN12QSnapdClient8checkBuyEv@Base 1.5
 _ZN12QSnapdClient8getSnapsE6QFlagsINS_12GetSnapsFlagEERK11QStringList@Base 1.42
 _ZN12QSnapdClient8getSnapsE6QFlagsINS_12GetSnapsFlagEERK7QString@Base 1.42
 _ZN12QSnapdClient8getSnapsERK11QStringList@Base 1.42
 _ZN12QSnapdClient8getSnapsERK7QString@Base 1.42
 _ZN12QSnapdClient8getSnapsEv@Base 1.42
 _ZN12QSnapdClient8getUsersEv@Base 1.26
 _ZN12QSnapdClient9getChangeERK7QString@Base 1.29
 _ZN12QSnapdClientC1EP7QObject@Base 1.5
 _ZN12QSnapdClientC1EiP7QObject@Base 1.8
 _ZN12QSnapdClientC2EP7QObject@Base 1.5
 _ZN12QSnapdClientC2EiP7QObject@Base 1.8
 _ZN12QSnapdClientD0Ev@Base 1.5
 _ZN12QSnapdClientD1Ev@Base 1.5
 _ZN12QSnapdClientD2Ev@Base 1.5
 _ZN13QSnapdChannel11qt_metacallEN11QMetaObject4CallEiPPv@Base 0
 _ZN13QSnapdChannel11qt_metacastEPKc@Base 0
 _ZN13QSnapdChannel16staticMetaObjectE@Base 0
 _ZN13QSnapdChannelC1EPvP7QObject@Base 1.24
 _ZN13QSnapdChannelC2EPvP7QObject@Base 1.24
 _ZN13QSnapdChannelD0Ev@Base 1.24
 _ZN13QSnapdChannelD1Ev@Base 1.24
 _ZN13QSnapdChannelD2Ev@Base 1.24
 _ZN13QSnapdPlugRef11qt_metacallEN11QMetaObject4CallEiPPv@Base 0
 _ZN13QSnapdPlugRef11qt_metacastEPKc@Base 0
 _ZN13QSnapdPlugRef16staticMetaObjectE@Base 0
 _ZN13QSnapdPlugRefC1EPvP7QObject@Base 1.48
 _ZN13QSnapdPlugRefC2EPvP7QObject@Base 1.48
 _ZN13QSnapdPlugRefD0Ev@Base 1.48
 _ZN13QSnapdPlugRefD1Ev@Base 1.48
 _ZN13QSnapdPlugRefD2Ev@Base 1.48
 _ZN13QSnapdRequest11qt_metacallEN11QMetaObject4CallEiPPv@Base 0
 _ZN13QSnapdRequest11qt_metacastEPKc@Base 0
 _ZN13QSnapdRequest14handleProgressEPv@Base 1.5
 _ZN13QSnapdRequest16staticMetaObjectE@Base 0
 _ZN13QSnapdRequest6cancelEv@Base 1.5
 _ZN13QSnapdRequest6finishEPv@Base 1.5
 _ZN13QSnapdRequest8completeEv@Base 1.5
 _ZN13QSnapdRequest8progressEv@Base 1.5
 _ZN13QSnapdRequestC1EPvP7QObject@Base 0
 _ZN13QSnapdRequestC2EPvP7QObject@Base 0
 _ZN13QSnapdRequestD0Ev@Base 0
 _ZN13QSnapdRequestD1Ev@Base 0
 _ZN13QSnapdRequestD2Ev@Base 0
 _ZN13QSnapdSlotRef11qt_metacallEN11QMetaObject4CallEiPPv@Base 0
 _ZN13QSnapdSlotRef11qt_metacastEPKc@Base 0
 _ZN13QSnapdSlotRef16staticMetaObjectE@Base 0
 _ZN13QSnapdSlotRefC1EPvP7QObject@Base 1.48
 _ZN13QSnapdSlotRefC2EPvP7QObject@Base 1.48
 _ZN13QSnapdSlotRefD0Ev@Base 1.48
 _ZN13QSnapdSlotRefD1Ev@Base 1.48
 _ZN13QSnapdSlotRefD2Ev@Base 1.48
 _ZN14QSnapdAuthData11qt_metacallEN11QMetaObject4CallEiPPv@Base 0
 _ZN14QSnapdAuthData11qt_metacastEPKc@Base 0
 _ZN14QSnapdAuthData16staticMetaObjectE@Base 0
 _ZN14QSnapdAuthDataC1EP7QObject@Base 1.33
 _ZN14QSnapdAuthDataC1EPvP7QObject@Base 1.5
 _ZN14QSnapdAuthDataC1ERK7QStringRK11QStringListP7QObject@Base 1.5
 _ZN14QSnapdAuthDataC2EP7QObject@Base 1.33
 _ZN14QSnapdAuthDataC2EPvP7QObject@Base 1.5
 _ZN14QSnapdAuthDataC2ERK7QStringRK11QStringListP7QObject@Base 1.5
 _ZN14QSnapdAuthDataD0Ev@Base 1.5
 _ZN14QSnapdAuthDataD1Ev@Base 1.5
 _ZN14QSnapdAuthDataD2Ev@Base 1.5
 _ZN15QSnapdAssertion11qt_metacallEN11QMetaObject4CallEiPPv@Base 0
 _ZN15QSnapdAssertion11qt_metacastEPKc@Base 0
 _ZN15QSnapdAssertion16staticMetaObjectE@Base 0
 _ZN15QSnapdAssertionC1ERK7QStringP7QObject@Base 1.8
 _ZN15QSnapdAssertionC2ERK7QStringP7QObject@Base 1.8
 _ZN15QSnapdAssertionD0Ev@Base 1.8
 _ZN15QSnapdAssertionD1Ev@Base 1.8
 _ZN15QSnapdAssertionD2Ev@Base 1.8
 _ZN15QSnapdInterface11qt_metacallEN11QMetaObject4CallEiPPv@Base 0
 _ZN15QSnapdInterface11qt_metacastEPKc@Base 0
 _ZN15QSnapdInterface16staticMetaObjectE@Base 0
 _ZN15QSnapdInterfaceC1EPvP7QObject@Base 1.48
 _ZN15QSnapdInterfaceC2EPvP7QObject@Base 1.48
 _ZN15QSnapdInterfaceD0Ev@Base 1.48
 _ZN15QSnapdInterfaceD1Ev@Base 1.48
 _ZN15QSnapdInterfaceD2Ev@Base 1.48
 _ZN16QSnapdBuyRequest11qt_metacallEN11QMetaObject4CallEiPPv@Base 0
 _ZN16QSnapdBuyRequest11qt_metacastEPKc@Base 0
 _ZN16QSnapdBuyRequest12handleResultEPvS0_@Base 0
 _ZN16QSnapdBuyRequest16staticMetaObjectE@Base 0
 _ZN16QSnapdBuyRequest7runSyncEv@Base 0
 _ZN16QSnapdBuyRequest8runAsyncEv@Base 0
 _ZN16QSnapdBuyRequestC1ERK7QStringdS2_PvP7QObject@Base 0
 _ZN16QSnapdBuyRequestC2ERK7QStringdS2_PvP7QObject@Base 0
 _ZN16QSnapdBuyRequestD0Ev@Base 0
 _ZN16QSnapdBuyRequestD1Ev@Base 0
 _ZN16QSnapdBuyRequestD2Ev@Base 0
 _ZN16QSnapdConnection11qt_metacallEN11QMetaObject4CallEiPPv@Base 0
 _ZN16QSnapdConnection11qt_metacastEPKc@Base 0
 _ZN16QSnapdConnection16staticMetaObjectE@Base 0
 _ZN16QSnapdConnectionC1EPvP7QObject@Base 1.5
 _ZN16QSnapdConnectionC2EPvP7QObject@Base 1.5
 _ZN16QSnapdConnectionD0Ev@Base 1.5
 _ZN16QSnapdConnectionD1Ev@Base 1.5
 _ZN16QSnapdConnectionD2Ev@Base 1.5
 _ZN16QSnapdScreenshot11qt_metacallEN11QMetaObject4CallEiPPv@Base 0
 _ZN16QSnapdScreenshot11qt_metacastEPKc@Base 0
 _ZN16QSnapdScreenshot16staticMetaObjectE@Base 0
 _ZN16QSnapdScreenshotC1EPvP7QObject@Base 1.8
 _ZN16QSnapdScreenshotC2EPvP7QObject@Base 1.8
 _ZN16QSnapdScreenshotD0Ev@Base 1.8
 _ZN16QSnapdScreenshotD1Ev@Base 1.8
 _ZN16QSnapdScreenshotD2Ev@Base 1.8
 _ZN16QSnapdTryRequest11qt_metacallEN11QMetaObject4CallEiPPv@Base 0
 _ZN16QSnapdTryRequest11qt_metacastEPKc@Base 0
 _ZN16QSnapdTryRequest12handleResultEPvS0_@Base 0
 _ZN16QSnapdTryRequest16staticMetaObjectE@Base 0
 _ZN16QSnapdTryRequest7runSyncEv@Base 0
 _ZN16QSnapdTryRequest8runAsyncEv@Base 0
 _ZN16QSnapdTryRequestC1ERK7QStringPvP7QObject@Base 0
 _ZN16QSnapdTryRequestC2ERK7QStringPvP7QObject@Base 0
 _ZN16QSnapdTryRequestD0Ev@Base 0
 _ZN16QSnapdTryRequestD1Ev@Base 0
 _ZN16QSnapdTryRequestD2Ev@Base 0
 _ZN17QSnapdFindRequest11qt_metacallEN11QMetaObject4CallEiPPv@Base 0
 _ZN17QSnapdFindRequest11qt_metacastEPKc@Base 0
 _ZN17QSnapdFindRequest12handleResultEPvS0_@Base 0
 _ZN17QSnapdFindRequest16staticMetaObjectE@Base 0
 _ZN17QSnapdFindRequest7runSyncEv@Base 0
 _ZN17QSnapdFindRequest8runAsyncEv@Base 0
 _ZN17QSnapdFindRequestC1EiRK7QStringS2_PvP7QObject@Base 0
 _ZN17QSnapdFindRequestC2EiRK7QStringS2_PvP7QObject@Base 0
 _ZN17QSnapdFindRequestD0Ev@Base 0
 _ZN17QSnapdFindRequestD1Ev@Base 0
 _ZN17QSnapdFindRequestD2Ev@Base 0
 _ZN17QSnapdListRequest11qt_metacallEN11QMetaObject4CallEiPPv@Base 0
 _ZN17QSnapdListRequest11qt_metacastEPKc@Base 0
 _ZN17QSnapdListRequest12handleResultEPvS0_@Base 0
 _ZN17QSnapdListRequest16staticMetaObjectE@Base 0
 _ZN17QSnapdListRequest7runSyncEv@Base 0
 _ZN17QSnapdListRequest8runAsyncEv@Base 0
 _ZN17QSnapdListRequestC1EPvP7QObject@Base 0
 _ZN17QSnapdListRequestC2EPvP7QObject@Base 0
 _ZN17QSnapdListRequestD0Ev@Base 0
 _ZN17QSnapdListRequestD1Ev@Base 0
 _ZN17QSnapdListRequestD2Ev@Base 0
 _ZN17QSnapdMaintenance11qt_metacallEN11QMetaObject4CallEiPPv@Base 0
 _ZN17QSnapdMaintenance11qt_metacastEPKc@Base 0
 _ZN17QSnapdMaintenance16staticMetaObjectE@Base 0
 _ZN17QSnapdMaintenanceC1EPvP7QObject@Base 1.45
 _ZN17QSnapdMaintenanceC2EPvP7QObject@Base 1.45
 _ZN17QSnapdMaintenanceD0Ev@Base 1.45
 _ZN17QSnapdMaintenanceD1Ev@Base 1.45
 _ZN17QSnapdMaintenanceD2Ev@Base 1.45
 _ZN17QtMetaTypePrivate23QMetaTypeFunctionHelperIP14QSnapdAuthDataLb1EE8DestructEPv@Base 0
 _ZN17QtMetaTypePrivate23QMetaTypeFunctionHelperIP14QSnapdAuthDataLb1EE9ConstructEPvPKv@Base 0
 _ZN17QtMetaTypePrivate23QMetaTypeFunctionHelperIP21QSnapdUserInformationLb1EE8DestructEPv@Base 0
 _ZN17QtMetaTypePrivate23QMetaTypeFunctionHelperIP21QSnapdUserInformationLb1EE9ConstructEPvPKv@Base 0
 _ZN17QtMetaTypePrivate23QMetaTypeFunctionHelperIP23QSnapdSystemInformationLb1EE8DestructEPv@Base 0
 _ZN17QtMetaTypePrivate23QMetaTypeFunctionHelperIP23QSnapdSystemInformationLb1EE9ConstructEPvPKv@Base 0
 _ZN18QSnapdAliasRequest11qt_metacallEN11QMetaObject4CallEiPPv@Base 0
 _ZN18QSnapdAliasRequest11qt_metacastEPKc@Base 0
 _ZN18QSnapdAliasRequest12handleResultEPvS0_@Base 0
 _ZN18QSnapdAliasRequest16staticMetaObjectE@Base 0
 _ZN18QSnapdAliasRequest7runSyncEv@Base 0
 _ZN18QSnapdAliasRequest8runAsyncEv@Base 0
 _ZN18QSnapdAliasRequestC1ERK7QStringS2_S2_PvP7QObject@Base 0
 _ZN18QSnapdAliasRequestC2ERK7QStringS2_S2_PvP7QObject@Base 0
 _ZN18QSnapdAliasRequestD0Ev@Base 0
 _ZN18QSnapdAliasRequestD1Ev@Base 0
 _ZN18QSnapdAliasRequestD2Ev@Base 0
 _ZN18QSnapdLoginRequest11qt_metacallEN11QMetaObject4CallEiPPv@Base 0
 _ZN18QSnapdLoginRequest11qt_metacastEPKc@Base 0
 _ZN18QSnapdLoginRequest12handleResultEPvS0_@Base 0
 _ZN18QSnapdLoginRequest15userInformationEv@Base 1.26
 _ZN18QSnapdLoginRequest16staticMetaObjectE@Base 0
 _ZN18QSnapdLoginRequest7runSyncEv@Base 0
 _ZN18QSnapdLoginRequest8authDataEv@Base 1.8
 _ZN18QSnapdLoginRequest8runAsyncEv@Base 0
 _ZN18QSnapdLoginRequestC1EPvRK7QStringS3_S3_P7QObject@Base 0
 _ZN18QSnapdLoginRequestC2EPvRK7QStringS3_S3_P7QObject@Base 0
 _ZN18QSnapdLoginRequestD0Ev@Base 0
 _ZN18QSnapdLoginRequestD1Ev@Base 0
 _ZN18QSnapdLoginRequestD2Ev@Base 0
 _ZN18QSnapdMarkdownNode11qt_metacallEN11QMetaObject4CallEiPPv@Base 0
 _ZN18QSnapdMarkdownNode11qt_metacastEPKc@Base 0
 _ZN18QSnapdMarkdownNode16staticMetaObjectE@Base 0
 _ZN18QSnapdMarkdownNodeC1EPvP7QObject@Base 1.48
 _ZN18QSnapdMarkdownNodeC1ERKS_@Base 1.48
 _ZN18QSnapdMarkdownNodeC2EPvP7QObject@Base 1.48
 _ZN18QSnapdMarkdownNodeC2ERKS_@Base 1.48
 _ZN18QSnapdMarkdownNodeD0Ev@Base 1.48
 _ZN18QSnapdMarkdownNodeD1Ev@Base 1.48
 _ZN18QSnapdMarkdownNodeD2Ev@Base 1.48
 _ZN19QSnapdEnableRequest11qt_metacallEN11QMetaObject4CallEiPPv@Base 0
 _ZN19QSnapdEnableRequest11qt_metacastEPKc@Base 0
 _ZN19QSnapdEnableRequest12handleResultEPvS0_@Base 0
 _ZN19QSnapdEnableRequest16staticMetaObjectE@Base 0
 _ZN19QSnapdEnableRequest7runSyncEv@Base 0
 _ZN19QSnapdEnableRequest8runAsyncEv@Base 0
 _ZN19QSnapdEnableRequestC1ERK7QStringPvP7QObject@Base 0
 _ZN19QSnapdEnableRequestC2ERK7QStringPvP7QObject@Base 0
 _ZN19QSnapdEnableRequestD0Ev@Base 0
 _ZN19QSnapdEnableRequestD1Ev@Base 0
 _ZN19QSnapdEnableRequestD2Ev@Base 0
 _ZN19QSnapdPreferRequest11qt_metacallEN11QMetaObject4CallEiPPv@Base 0
 _ZN19QSnapdPreferRequest11qt_metacastEPKc@Base 0
 _ZN19QSnapdPreferRequest12handleResultEPvS0_@Base 0
 _ZN19QSnapdPreferRequest16staticMetaObjectE@Base 0
 _ZN19QSnapdPreferRequest7runSyncEv@Base 0
 _ZN19QSnapdPreferRequest8runAsyncEv@Base 0
 _ZN19QSnapdPreferRequestC1ERK7QStringPvP7QObject@Base 0
 _ZN19QSnapdPreferRequestC2ERK7QStringPvP7QObject@Base 0
 _ZN19QSnapdPreferRequestD0Ev@Base 0
 _ZN19QSnapdPreferRequestD1Ev@Base 0
 _ZN19QSnapdPreferRequestD2Ev@Base 0
 _ZN19QSnapdRemoveRequest11qt_metacallEN11QMetaObject4CallEiPPv@Base 0
 _ZN19QSnapdRemoveRequest11qt_metacastEPKc@Base 0
 _ZN19QSnapdRemoveRequest12handleResultEPvS0_@Base 0
 _ZN19QSnapdRemoveRequest16staticMetaObjectE@Base 0
 _ZN19QSnapdRemoveRequest7runSyncEv@Base 0
 _ZN19QSnapdRemoveRequest8runAsyncEv@Base 0
 _ZN19QSnapdRemoveRequestC1ERK7QStringPvP7QObject@Base 0
 _ZN19QSnapdRemoveRequestC2ERK7QStringPvP7QObject@Base 0
 _ZN19QSnapdRemoveRequestD0Ev@Base 0
 _ZN19QSnapdRemoveRequestD1Ev@Base 0
 _ZN19QSnapdRemoveRequestD2Ev@Base 0
 _ZN19QSnapdWrappedObject11qt_metacallEN11QMetaObject4CallEiPPv@Base 0
 _ZN19QSnapdWrappedObject11qt_metacastEPKc@Base 0
 _ZN19QSnapdWrappedObject16staticMetaObjectE@Base 0
 _ZN19QSnapdWrappedObjectD0Ev@Base 1.5
 _ZN19QSnapdWrappedObjectD1Ev@Base 1.5
 _ZN19QSnapdWrappedObjectD2Ev@Base 1.5
 _ZN20QSnapdConnectRequest11qt_metacallEN11QMetaObject4CallEiPPv@Base 0
 _ZN20QSnapdConnectRequest11qt_metacastEPKc@Base 0
 _ZN20QSnapdConnectRequest12handleResultEPvS0_@Base 0
 _ZN20QSnapdConnectRequest16staticMetaObjectE@Base 0
 _ZN20QSnapdConnectRequest7runSyncEv@Base 0
 _ZN20QSnapdConnectRequest8runAsyncEv@Base 0
 _ZN20QSnapdConnectRequestC1EPvP7QObject@Base 0
 _ZN20QSnapdConnectRequestC2EPvP7QObject@Base 0
 _ZN20QSnapdConnectRequestD0Ev@Base 0
 _ZN20QSnapdConnectRequestD1Ev@Base 0
 _ZN20QSnapdConnectRequestD2Ev@Base 0
 _ZN20QSnapdDisableRequest11qt_metacallEN11QMetaObject4CallEiPPv@Base 0
 _ZN20QSnapdDisableRequest11qt_metacastEPKc@Base 0
 _ZN20QSnapdDisableRequest12handleResultEPvS0_@Base 0
 _ZN20QSnapdDisableRequest16staticMetaObjectE@Base 0
 _ZN20QSnapdDisableRequest7runSyncEv@Base 0
 _ZN20QSnapdDisableRequest8runAsyncEv@Base 0
 _ZN20QSnapdDisableRequestC1ERK7QStringPvP7QObject@Base 0
 _ZN20QSnapdDisableRequestC2ERK7QStringPvP7QObject@Base 0
 _ZN20QSnapdDisableRequestD0Ev@Base 0
 _ZN20QSnapdDisableRequestD1Ev@Base 0
 _ZN20QSnapdDisableRequestD2Ev@Base 0
 _ZN20QSnapdGetAppsRequest11qt_metacallEN11QMetaObject4CallEiPPv@Base 0
 _ZN20QSnapdGetAppsRequest11qt_metacastEPKc@Base 0
 _ZN20QSnapdGetAppsRequest12handleResultEPvS0_@Base 0
 _ZN20QSnapdGetAppsRequest16staticMetaObjectE@Base 0
 _ZN20QSnapdGetAppsRequest7runSyncEv@Base 0
 _ZN20QSnapdGetAppsRequest8runAsyncEv@Base 0
 _ZN20QSnapdGetAppsRequestC1EiPvP7QObject@Base 0
 _ZN20QSnapdGetAppsRequestC1EiRK11QStringListPvP7QObject@Base 0
 _ZN20QSnapdGetAppsRequestC2EiPvP7QObject@Base 0
 _ZN20QSnapdGetAppsRequestC2EiRK11QStringListPvP7QObject@Base 0
 _ZN20QSnapdGetAppsRequestD0Ev@Base 0
 _ZN20QSnapdGetAppsRequestD1Ev@Base 0
 _ZN20QSnapdGetAppsRequestD2Ev@Base 0
 _ZN20QSnapdGetIconRequest11qt_metacallEN11QMetaObject4CallEiPPv@Base 0
 _ZN20QSnapdGetIconRequest11qt_metacastEPKc@Base 0
 _ZN20QSnapdGetIconRequest12handleResultEPvS0_@Base 0
 _ZN20QSnapdGetIconRequest16staticMetaObjectE@Base 0
 _ZN20QSnapdGetIconRequest7runSyncEv@Base 0
 _ZN20QSnapdGetIconRequest8runAsyncEv@Base 0
 _ZN20QSnapdGetIconRequestC1ERK7QStringPvP7QObject@Base 0
 _ZN20QSnapdGetIconRequestC2ERK7QStringPvP7QObject@Base 0
 _ZN20QSnapdGetIconRequestD0Ev@Base 0
 _ZN20QSnapdGetIconRequestD1Ev@Base 0
 _ZN20QSnapdGetIconRequestD2Ev@Base 0
 _ZN20QSnapdGetSnapRequest11qt_metacallEN11QMetaObject4CallEiPPv@Base 0
 _ZN20QSnapdGetSnapRequest11qt_metacastEPKc@Base 0
 _ZN20QSnapdGetSnapRequest12handleResultEPvS0_@Base 0
 _ZN20QSnapdGetSnapRequest16staticMetaObjectE@Base 0
 _ZN20QSnapdGetSnapRequest7runSyncEv@Base 0
 _ZN20QSnapdGetSnapRequest8runAsyncEv@Base 0
 _ZN20QSnapdGetSnapRequestC1ERK7QStringPvP7QObject@Base 0
 _ZN20QSnapdGetSnapRequestC2ERK7QStringPvP7QObject@Base 0
 _ZN20QSnapdGetSnapRequestD0Ev@Base 0
 _ZN20QSnapdGetSnapRequestD1Ev@Base 0
 _ZN20QSnapdGetSnapRequestD2Ev@Base 0
 _ZN20QSnapdInstallRequest11qt_metacallEN11QMetaObject4CallEiPPv@Base 0
 _ZN20QSnapdInstallRequest11qt_metacastEPKc@Base 0
 _ZN20QSnapdInstallRequest12handleResultEPvS0_@Base 0
 _ZN20QSnapdInstallRequest16staticMetaObjectE@Base 0
 _ZN20QSnapdInstallRequest7runSyncEv@Base 0
 _ZN20QSnapdInstallRequest8runAsyncEv@Base 0
 _ZN20QSnapdInstallRequestC1EiRK7QStringS2_S2_P9QIODevicePvP7QObject@Base 0
 _ZN20QSnapdInstallRequestC2EiRK7QStringS2_S2_P9QIODevicePvP7QObject@Base 0
 _ZN20QSnapdInstallRequestD0Ev@Base 0
 _ZN20QSnapdInstallRequestD1Ev@Base 0
 _ZN20QSnapdInstallRequestD2Ev@Base 0
 _ZN20QSnapdListOneRequest11qt_metacallEN11QMetaObject4CallEiPPv@Base 0
 _ZN20QSnapdListOneRequest11qt_metacastEPKc@Base 0
 _ZN20QSnapdListOneRequest12handleResultEPvS0_@Base 0
 _ZN20QSnapdListOneRequest16staticMetaObjectE@Base 0
 _ZN20QSnapdListOneRequest7runSyncEv@Base 0
 _ZN20QSnapdListOneRequest8runAsyncEv@Base 0
 _ZN20QSnapdListOneRequestC1ERK7QStringPvP7QObject@Base 0
 _ZN20QSnapdListOneRequestC2ERK7QStringPvP7QObject@Base 0
 _ZN20QSnapdListOneRequestD0Ev@Base 0
 _ZN20QSnapdListOneRequestD1Ev@Base 0
 _ZN20QSnapdListOneRequestD2Ev@Base 0
 _ZN20QSnapdMarkdownParser11qt_metacallEN11QMetaObject4CallEiPPv@Base 0
 _ZN20QSnapdMarkdownParser11qt_metacastEPKc@Base 0
 _ZN20QSnapdMarkdownParser16staticMetaObjectE@Base 0
 _ZN20QSnapdMarkdownParserC1ENS_15MarkdownVersionEP7QObject@Base 1.48
 _ZN20QSnapdMarkdownParserC2ENS_15MarkdownVersionEP7QObject@Base 1.48
 _ZN20QSnapdMarkdownParserD0Ev@Base 1.48
 _ZN20QSnapdMarkdownParserD1Ev@Base 1.48
 _ZN20QSnapdMarkdownParserD2Ev@Base 1.48
 _ZN20QSnapdRefreshRequest11qt_metacallEN11QMetaObject4CallEiPPv@Base 0
 _ZN20QSnapdRefreshRequest11qt_metacastEPKc@Base 0
 _ZN20QSnapdRefreshRequest12handleResultEPvS0_@Base 0
 _ZN20QSnapdRefreshRequest16staticMetaObjectE@Base 0
 _ZN20QSnapdRefreshRequest7runSyncEv@Base 0
 _ZN20QSnapdRefreshRequest8runAsyncEv@Base 0
 _ZN20QSnapdRefreshRequestC1ERK7QStringS2_PvP7QObject@Base 0
 _ZN20QSnapdRefreshRequestC2ERK7QStringS2_PvP7QObject@Base 0
 _ZN20QSnapdRefreshRequestD0Ev@Base 0
 _ZN20QSnapdRefreshRequestD1Ev@Base 0
 _ZN20QSnapdRefreshRequestD2Ev@Base 0
 _ZN20QSnapdUnaliasRequest11qt_metacallEN11QMetaObject4CallEiPPv@Base 0
 _ZN20QSnapdUnaliasRequest11qt_metacastEPKc@Base 0
 _ZN20QSnapdUnaliasRequest12handleResultEPvS0_@Base 0
 _ZN20QSnapdUnaliasRequest16staticMetaObjectE@Base 0
 _ZN20QSnapdUnaliasRequest7runSyncEv@Base 0
 _ZN20QSnapdUnaliasRequest8runAsyncEv@Base 0
 _ZN20QSnapdUnaliasRequestC1ERK7QStringS2_PvP7QObject@Base 0
 _ZN20QSnapdUnaliasRequestC2ERK7QStringS2_PvP7QObject@Base 0
 _ZN20QSnapdUnaliasRequestD0Ev@Base 0
 _ZN20QSnapdUnaliasRequestD1Ev@Base 0
 _ZN20QSnapdUnaliasRequestD2Ev@Base 0
 _ZN21QSnapdCheckBuyRequest11qt_metacallEN11QMetaObject4CallEiPPv@Base 0
 _ZN21QSnapdCheckBuyRequest11qt_metacastEPKc@Base 0
 _ZN21QSnapdCheckBuyRequest12handleResultEPvS0_@Base 0
 _ZN21QSnapdCheckBuyRequest16staticMetaObjectE@Base 0
 _ZN21QSnapdCheckBuyRequest7runSyncEv@Base 0
 _ZN21QSnapdCheckBuyRequest8runAsyncEv@Base 0
 _ZN21QSnapdCheckBuyRequestC1EPvP7QObject@Base 0
 _ZN21QSnapdCheckBuyRequestC2EPvP7QObject@Base 0
 _ZN21QSnapdCheckBuyRequestD0Ev@Base 0
 _ZN21QSnapdCheckBuyRequestD1Ev@Base 0
 _ZN21QSnapdCheckBuyRequestD2Ev@Base 0
 _ZN21QSnapdGetSnapsRequest11qt_metacallEN11QMetaObject4CallEiPPv@Base 0
 _ZN21QSnapdGetSnapsRequest11qt_metacastEPKc@Base 0
 _ZN21QSnapdGetSnapsRequest12handleResultEPvS0_@Base 0
 _ZN21QSnapdGetSnapsRequest16staticMetaObjectE@Base 0
 _ZN21QSnapdGetSnapsRequest7runSyncEv@Base 0
 _ZN21QSnapdGetSnapsRequest8runAsyncEv@Base 0
 _ZN21QSnapdGetSnapsRequestC1EiRK11QStringListPvP7QObject@Base 0
 _ZN21QSnapdGetSnapsRequestC2EiRK11QStringListPvP7QObject@Base 0
 _ZN21QSnapdGetSnapsRequestD0Ev@Base 0
 _ZN21QSnapdGetSnapsRequestD1Ev@Base 0
 _ZN21QSnapdGetSnapsRequestD2Ev@Base 0
 _ZN21QSnapdGetUsersRequest11qt_metacallEN11QMetaObject4CallEiPPv@Base 0
 _ZN21QSnapdGetUsersRequest11qt_metacastEPKc@Base 0
 _ZN21QSnapdGetUsersRequest12handleResultEPvS0_@Base 0
 _ZN21QSnapdGetUsersRequest16staticMetaObjectE@Base 0
 _ZN21QSnapdGetUsersRequest7runSyncEv@Base 0
 _ZN21QSnapdGetUsersRequest8runAsyncEv@Base 0
 _ZN21QSnapdGetUsersRequestC1EPvP7QObject@Base 0
 _ZN21QSnapdGetUsersRequestC2EPvP7QObject@Base 0
 _ZN21QSnapdGetUsersRequestD0Ev@Base 0
 _ZN21QSnapdGetUsersRequestD1Ev@Base 0
 _ZN21QSnapdGetUsersRequestD2Ev@Base 0
 _ZN21QSnapdUserInformation11qt_metacallEN11QMetaObject4CallEiPPv@Base 0
 _ZN21QSnapdUserInformation11qt_metacastEPKc@Base 0
 _ZN21QSnapdUserInformation16staticMetaObjectE@Base 0
 _ZN21QSnapdUserInformationC1EPvP7QObject@Base 1.25
 _ZN21QSnapdUserInformationC2EPvP7QObject@Base 1.25
 _ZN21QSnapdUserInformationD0Ev@Base 1.25
 _ZN21QSnapdUserInformationD1Ev@Base 1.25
 _ZN21QSnapdUserInformationD2Ev@Base 1.25
 _ZN22QSnapdGetChangeRequest11qt_metacallEN11QMetaObject4CallEiPPv@Base 0
 _ZN22QSnapdGetChangeRequest11qt_metacastEPKc@Base 0
 _ZN22QSnapdGetChangeRequest12handleResultEPvS0_@Base 0
 _ZN22QSnapdGetChangeRequest16staticMetaObjectE@Base 0
 _ZN22QSnapdGetChangeRequest7runSyncEv@Base 0
 _ZN22QSnapdGetChangeRequest8runAsyncEv@Base 0
 _ZN22QSnapdGetChangeRequestC1ERK7QStringPvP7QObject@Base 0
 _ZN22QSnapdGetChangeRequestC2ERK7QStringPvP7QObject@Base 0
 _ZN22QSnapdGetChangeRequestD0Ev@Base 0
 _ZN22QSnapdGetChangeRequestD1Ev@Base 0
 _ZN22QSnapdGetChangeRequestD2Ev@Base 0
 _ZN23QSnapdCreateUserRequest11qt_metacallEN11QMetaObject4CallEiPPv@Base 0
 _ZN23QSnapdCreateUserRequest11qt_metacastEPKc@Base 0
 _ZN23QSnapdCreateUserRequest12handleResultEPvS0_@Base 0
 _ZN23QSnapdCreateUserRequest16staticMetaObjectE@Base 0
 _ZN23QSnapdCreateUserRequest7runSyncEv@Base 0
 _ZN23QSnapdCreateUserRequest8runAsyncEv@Base 0
 _ZN23QSnapdCreateUserRequestC1ERK7QStringiPvP7QObject@Base 0
 _ZN23QSnapdCreateUserRequestC2ERK7QStringiPvP7QObject@Base 0
 _ZN23QSnapdCreateUserRequestD0Ev@Base 0
 _ZN23QSnapdCreateUserRequestD1Ev@Base 0
 _ZN23QSnapdCreateUserRequestD2Ev@Base 0
 _ZN23QSnapdGetAliasesRequest11qt_metacallEN11QMetaObject4CallEiPPv@Base 0
 _ZN23QSnapdGetAliasesRequest11qt_metacastEPKc@Base 0
 _ZN23QSnapdGetAliasesRequest12handleResultEPvS0_@Base 0
 _ZN23QSnapdGetAliasesRequest16staticMetaObjectE@Base 0
 _ZN23QSnapdGetAliasesRequest7runSyncEv@Base 0
 _ZN23QSnapdGetAliasesRequest8runAsyncEv@Base 0
 _ZN23QSnapdGetAliasesRequestC1EPvP7QObject@Base 0
 _ZN23QSnapdGetAliasesRequestC2EPvP7QObject@Base 0
 _ZN23QSnapdGetAliasesRequestD0Ev@Base 0
 _ZN23QSnapdGetAliasesRequestD1Ev@Base 0
 _ZN23QSnapdGetAliasesRequestD2Ev@Base 0
 _ZN23QSnapdGetChangesRequest11qt_metacallEN11QMetaObject4CallEiPPv@Base 0
 _ZN23QSnapdGetChangesRequest11qt_metacastEPKc@Base 0
 _ZN23QSnapdGetChangesRequest12handleResultEPvS0_@Base 0
 _ZN23QSnapdGetChangesRequest16staticMetaObjectE@Base 0
 _ZN23QSnapdGetChangesRequest7runSyncEv@Base 0
 _ZN23QSnapdGetChangesRequest8runAsyncEv@Base 0
 _ZN23QSnapdGetChangesRequestC1EiRK7QStringPvP7QObject@Base 0
 _ZN23QSnapdGetChangesRequestC2EiRK7QStringPvP7QObject@Base 0
 _ZN23QSnapdGetChangesRequestD0Ev@Base 0
 _ZN23QSnapdGetChangesRequestD1Ev@Base 0
 _ZN23QSnapdGetChangesRequestD2Ev@Base 0
 _ZN23QSnapdRefreshAllRequest11qt_metacallEN11QMetaObject4CallEiPPv@Base 0
 _ZN23QSnapdRefreshAllRequest11qt_metacastEPKc@Base 0
 _ZN23QSnapdRefreshAllRequest12handleResultEPvS0_@Base 0
 _ZN23QSnapdRefreshAllRequest16staticMetaObjectE@Base 0
 _ZN23QSnapdRefreshAllRequest7runSyncEv@Base 0
 _ZN23QSnapdRefreshAllRequest8runAsyncEv@Base 0
 _ZN23QSnapdRefreshAllRequestC1EPvP7QObject@Base 0
 _ZN23QSnapdRefreshAllRequestC2EPvP7QObject@Base 0
 _ZN23QSnapdRefreshAllRequestD0Ev@Base 0
 _ZN23QSnapdRefreshAllRequestD1Ev@Base 0
 _ZN23QSnapdRefreshAllRequestD2Ev@Base 0
 _ZN23QSnapdRunSnapCtlRequest11qt_metacallEN11QMetaObject4CallEiPPv@Base 0
 _ZN23QSnapdRunSnapCtlRequest11qt_metacastEPKc@Base 0
 _ZN23QSnapdRunSnapCtlRequest12handleResultEPvS0_@Base 0
 _ZN23QSnapdRunSnapCtlRequest16staticMetaObjectE@Base 0
 _ZN23QSnapdRunSnapCtlRequest7runSyncEv@Base 0
 _ZN23QSnapdRunSnapCtlRequest8runAsyncEv@Base 0
 _ZN23QSnapdRunSnapCtlRequestC1ERK7QStringRK11QStringListPvP7QObject@Base 0
 _ZN23QSnapdRunSnapCtlRequestC2ERK7QStringRK11QStringListPvP7QObject@Base 0
 _ZN23QSnapdRunSnapCtlRequestD0Ev@Base 0
 _ZN23QSnapdRunSnapCtlRequestD1Ev@Base 0
 _ZN23QSnapdRunSnapCtlRequestD2Ev@Base 0
 _ZN23QSnapdSystemInformation11qt_metacallEN11QMetaObject4CallEiPPv@Base 0
 _ZN23QSnapdSystemInformation11qt_metacastEPKc@Base 0
 _ZN23QSnapdSystemInformation16staticMetaObjectE@Base 0
 _ZN23QSnapdSystemInformationC1EPvP7QObject@Base 1.5
 _ZN23QSnapdSystemInformationC2EPvP7QObject@Base 1.5
 _ZN23QSnapdSystemInformationD0Ev@Base 1.5
 _ZN23QSnapdSystemInformationD1Ev@Base 1.5
 _ZN23QSnapdSystemInformationD2Ev@Base 1.5
 _ZN24QSnapdAbortChangeRequest11qt_metacallEN11QMetaObject4CallEiPPv@Base 0
 _ZN24QSnapdAbortChangeRequest11qt_metacastEPKc@Base 0
 _ZN24QSnapdAbortChangeRequest12handleResultEPvS0_@Base 0
 _ZN24QSnapdAbortChangeRequest16staticMetaObjectE@Base 0
 _ZN24QSnapdAbortChangeRequest7runSyncEv@Base 0
 _ZN24QSnapdAbortChangeRequest8runAsyncEv@Base 0
 _ZN24QSnapdAbortChangeRequestC1ERK7QStringPvP7QObject@Base 0
 _ZN24QSnapdAbortChangeRequestC2ERK7QStringPvP7QObject@Base 0
 _ZN24QSnapdAbortChangeRequestD0Ev@Base 0
 _ZN24QSnapdAbortChangeRequestD1Ev@Base 0
 _ZN24QSnapdAbortChangeRequestD2Ev@Base 0
 _ZN24QSnapdCreateUsersRequest11qt_metacallEN11QMetaObject4CallEiPPv@Base 0
 _ZN24QSnapdCreateUsersRequest11qt_metacastEPKc@Base 0
 _ZN24QSnapdCreateUsersRequest12handleResultEPvS0_@Base 0
 _ZN24QSnapdCreateUsersRequest16staticMetaObjectE@Base 0
 _ZN24QSnapdCreateUsersRequest7runSyncEv@Base 0
 _ZN24QSnapdCreateUsersRequest8runAsyncEv@Base 0
 _ZN24QSnapdCreateUsersRequestC1EPvP7QObject@Base 0
 _ZN24QSnapdCreateUsersRequestC2EPvP7QObject@Base 0
 _ZN24QSnapdCreateUsersRequestD0Ev@Base 0
 _ZN24QSnapdCreateUsersRequestD1Ev@Base 0
 _ZN24QSnapdCreateUsersRequestD2Ev@Base 0
 _ZN24QSnapdGetSectionsRequest11qt_metacallEN11QMetaObject4CallEiPPv@Base 0
 _ZN24QSnapdGetSectionsRequest11qt_metacastEPKc@Base 0
 _ZN24QSnapdGetSectionsRequest12handleResultEPvS0_@Base 0
 _ZN24QSnapdGetSectionsRequest16staticMetaObjectE@Base 0
 _ZN24QSnapdGetSectionsRequest7runSyncEv@Base 0
 _ZN24QSnapdGetSectionsRequest8runAsyncEv@Base 0
 _ZN24QSnapdGetSectionsRequestC1EPvP7QObject@Base 0
 _ZN24QSnapdGetSectionsRequestC2EPvP7QObject@Base 0
 _ZN24QSnapdGetSectionsRequestD0Ev@Base 0
 _ZN24QSnapdGetSectionsRequestD1Ev@Base 0
 _ZN24QSnapdGetSectionsRequestD2Ev@Base 0
 _ZN24QSnapdGetSnapConfRequest11qt_metacallEN11QMetaObject4CallEiPPv@Base 0
 _ZN24QSnapdGetSnapConfRequest11qt_metacastEPKc@Base 0
 _ZN24QSnapdGetSnapConfRequest12handleResultEPvS0_@Base 0
 _ZN24QSnapdGetSnapConfRequest16staticMetaObjectE@Base 0
 _ZN24QSnapdGetSnapConfRequest7runSyncEv@Base 0
 _ZN24QSnapdGetSnapConfRequest8runAsyncEv@Base 0
 _ZN24QSnapdGetSnapConfRequestC1ERK7QStringRK11QStringListPvP7QObject@Base 0
 _ZN24QSnapdGetSnapConfRequestC2ERK7QStringRK11QStringListPvP7QObject@Base 0
 _ZN24QSnapdGetSnapConfRequestD0Ev@Base 0
 _ZN24QSnapdGetSnapConfRequestD1Ev@Base 0
 _ZN24QSnapdGetSnapConfRequestD2Ev@Base 0
 _ZN24QSnapdSetSnapConfRequest11qt_metacallEN11QMetaObject4CallEiPPv@Base 0
 _ZN24QSnapdSetSnapConfRequest11qt_metacastEPKc@Base 0
 _ZN24QSnapdSetSnapConfRequest12handleResultEPvS0_@Base 0
 _ZN24QSnapdSetSnapConfRequest16staticMetaObjectE@Base 0
 _ZN24QSnapdSetSnapConfRequest7runSyncEv@Base 0
 _ZN24QSnapdSetSnapConfRequest8runAsyncEv@Base 0
 _ZN24QSnapdSetSnapConfRequestC1ERK7QStringRK5QHashIS0_8QVariantEPvP7QObject@Base 0
 _ZN24QSnapdSetSnapConfRequestC2ERK7QStringRK5QHashIS0_8QVariantEPvP7QObject@Base 0
 _ZN24QSnapdSetSnapConfRequestD0Ev@Base 0
 _ZN24QSnapdSetSnapConfRequestD1Ev@Base 0
 _ZN24QSnapdSetSnapConfRequestD2Ev@Base 0
 _ZN25QSnapdResetAliasesRequest11qt_metacallEN11QMetaObject4CallEiPPv@Base 0
 _ZN25QSnapdResetAliasesRequest11qt_metacastEPKc@Base 0
 _ZN25QSnapdResetAliasesRequest12handleResultEPvS0_@Base 0
 _ZN25QSnapdResetAliasesRequest16staticMetaObjectE@Base 0
 _ZN25QSnapdResetAliasesRequest7runSyncEv@Base 0
 _ZN25QSnapdResetAliasesRequest8runAsyncEv@Base 0
 _ZN25QSnapdResetAliasesRequestC1ERK7QStringRK11QStringListPvP7QObject@Base 0
 _ZN25QSnapdResetAliasesRequestC2ERK7QStringRK11QStringListPvP7QObject@Base 0
 _ZN25QSnapdResetAliasesRequestD0Ev@Base 0
 _ZN25QSnapdResetAliasesRequestD1Ev@Base 0
 _ZN25QSnapdResetAliasesRequestD2Ev@Base 0
 _ZN26QSnapdAddAssertionsRequest11qt_metacallEN11QMetaObject4CallEiPPv@Base 0
 _ZN26QSnapdAddAssertionsRequest11qt_metacastEPKc@Base 0
 _ZN26QSnapdAddAssertionsRequest12handleResultEPvS0_@Base 0
 _ZN26QSnapdAddAssertionsRequest16staticMetaObjectE@Base 0
 _ZN26QSnapdAddAssertionsRequest7runSyncEv@Base 0
 _ZN26QSnapdAddAssertionsRequest8runAsyncEv@Base 0
 _ZN26QSnapdAddAssertionsRequestC1ERK11QStringListPvP7QObject@Base 0
 _ZN26QSnapdAddAssertionsRequestC2ERK11QStringListPvP7QObject@Base 0
 _ZN26QSnapdAddAssertionsRequestD0Ev@Base 0
 _ZN26QSnapdAddAssertionsRequestD1Ev@Base 0
 _ZN26QSnapdAddAssertionsRequestD2Ev@Base 0
 _ZN26QSnapdEnableAliasesRequest11qt_metacallEN11QMetaObject4CallEiPPv@Base 0
 _ZN26QSnapdEnableAliasesRequest11qt_metacastEPKc@Base 0
 _ZN26QSnapdEnableAliasesRequest12handleResultEPvS0_@Base 0
 _ZN26QSnapdEnableAliasesRequest16staticMetaObjectE@Base 0
 _ZN26QSnapdEnableAliasesRequest7runSyncEv@Base 0
 _ZN26QSnapdEnableAliasesRequest8runAsyncEv@Base 0
 _ZN26QSnapdEnableAliasesRequestC1ERK7QStringRK11QStringListPvP7QObject@Base 0
 _ZN26QSnapdEnableAliasesRequestC2ERK7QStringRK11QStringListPvP7QObject@Base 0
 _ZN26QSnapdEnableAliasesRequestD0Ev@Base 0
 _ZN26QSnapdEnableAliasesRequestD1Ev@Base 0
 _ZN26QSnapdEnableAliasesRequestD2Ev@Base 0
 _ZN26QSnapdGetAssertionsRequest11qt_metacallEN11QMetaObject4CallEiPPv@Base 0
 _ZN26QSnapdGetAssertionsRequest11qt_metacastEPKc@Base 0
 _ZN26QSnapdGetAssertionsRequest12handleResultEPvS0_@Base 0
 _ZN26QSnapdGetAssertionsRequest16staticMetaObjectE@Base 0
 _ZN26QSnapdGetAssertionsRequest7runSyncEv@Base 0
 _ZN26QSnapdGetAssertionsRequest8runAsyncEv@Base 0
 _ZN26QSnapdGetAssertionsRequestC1ERK7QStringPvP7QObject@Base 0
 _ZN26QSnapdGetAssertionsRequestC2ERK7QStringPvP7QObject@Base 0
 _ZN26QSnapdGetAssertionsRequestD0Ev@Base 0
 _ZN26QSnapdGetAssertionsRequestD1Ev@Base 0
 _ZN26QSnapdGetAssertionsRequestD2Ev@Base 0
 _ZN26QSnapdGetInterfacesRequest11qt_metacallEN11QMetaObject4CallEiPPv@Base 0
 _ZN26QSnapdGetInterfacesRequest11qt_metacastEPKc@Base 0
 _ZN26QSnapdGetInterfacesRequest12handleResultEPvS0_@Base 0
 _ZN26QSnapdGetInterfacesRequest16staticMetaObjectE@Base 0
 _ZN26QSnapdGetInterfacesRequest7runSyncEv@Base 0
 _ZN26QSnapdGetInterfacesRequest8runAsyncEv@Base 0
 _ZN26QSnapdGetInterfacesRequestC1EPvP7QObject@Base 0
 _ZN26QSnapdGetInterfacesRequestC2EPvP7QObject@Base 0
 _ZN26QSnapdGetInterfacesRequestD0Ev@Base 0
 _ZN26QSnapdGetInterfacesRequestD1Ev@Base 0
 _ZN26QSnapdGetInterfacesRequestD2Ev@Base 0
 _ZN26QSnapdSwitchChannelRequest11qt_metacallEN11QMetaObject4CallEiPPv@Base 0
 _ZN26QSnapdSwitchChannelRequest11qt_metacastEPKc@Base 0
 _ZN26QSnapdSwitchChannelRequest12handleResultEPvS0_@Base 0
 _ZN26QSnapdSwitchChannelRequest16staticMetaObjectE@Base 0
 _ZN26QSnapdSwitchChannelRequest7runSyncEv@Base 0
 _ZN26QSnapdSwitchChannelRequest8runAsyncEv@Base 0
 _ZN26QSnapdSwitchChannelRequestC1ERK7QStringS2_PvP7QObject@Base 0
 _ZN26QSnapdSwitchChannelRequestC2ERK7QStringS2_PvP7QObject@Base 0
 _ZN26QSnapdSwitchChannelRequestD0Ev@Base 0
 _ZN26QSnapdSwitchChannelRequestD1Ev@Base 0
 _ZN26QSnapdSwitchChannelRequestD2Ev@Base 0
 _ZN27QSnapdDisableAliasesRequest11qt_metacallEN11QMetaObject4CallEiPPv@Base 0
 _ZN27QSnapdDisableAliasesRequest11qt_metacastEPKc@Base 0
 _ZN27QSnapdDisableAliasesRequest12handleResultEPvS0_@Base 0
 _ZN27QSnapdDisableAliasesRequest16staticMetaObjectE@Base 0
 _ZN27QSnapdDisableAliasesRequest7runSyncEv@Base 0
 _ZN27QSnapdDisableAliasesRequest8runAsyncEv@Base 0
 _ZN27QSnapdDisableAliasesRequestC1ERK7QStringRK11QStringListPvP7QObject@Base 0
 _ZN27QSnapdDisableAliasesRequestC2ERK7QStringRK11QStringListPvP7QObject@Base 0
 _ZN27QSnapdDisableAliasesRequestD0Ev@Base 0
 _ZN27QSnapdDisableAliasesRequestD1Ev@Base 0
 _ZN27QSnapdDisableAliasesRequestD2Ev@Base 0
 _ZN27QSnapdGetConnectionsRequest11qt_metacallEN11QMetaObject4CallEiPPv@Base 0
 _ZN27QSnapdGetConnectionsRequest11qt_metacastEPKc@Base 0
 _ZN27QSnapdGetConnectionsRequest12handleResultEPvS0_@Base 0
 _ZN27QSnapdGetConnectionsRequest16staticMetaObjectE@Base 0
 _ZN27QSnapdGetConnectionsRequest7runSyncEv@Base 0
 _ZN27QSnapdGetConnectionsRequest8runAsyncEv@Base 0
 _ZN27QSnapdGetConnectionsRequestC1EiRK7QStringS2_PvP7QObject@Base 0
 _ZN27QSnapdGetConnectionsRequestC2EiRK7QStringS2_PvP7QObject@Base 0
 _ZN27QSnapdGetConnectionsRequestD0Ev@Base 0
 _ZN27QSnapdGetConnectionsRequestD1Ev@Base 0
 _ZN27QSnapdGetConnectionsRequestD2Ev@Base 0
 _ZN27QSnapdGetInterfaces2Request11qt_metacallEN11QMetaObject4CallEiPPv@Base 0
 _ZN27QSnapdGetInterfaces2Request11qt_metacastEPKc@Base 0
 _ZN27QSnapdGetInterfaces2Request12handleResultEPvS0_@Base 0
 _ZN27QSnapdGetInterfaces2Request16staticMetaObjectE@Base 0
 _ZN27QSnapdGetInterfaces2Request7runSyncEv@Base 0
 _ZN27QSnapdGetInterfaces2Request8runAsyncEv@Base 0
 _ZN27QSnapdGetInterfaces2RequestC1EiRK11QStringListPvP7QObject@Base 0
 _ZN27QSnapdGetInterfaces2RequestC2EiRK11QStringListPvP7QObject@Base 0
 _ZN27QSnapdGetInterfaces2RequestD0Ev@Base 0
 _ZN27QSnapdGetInterfaces2RequestD1Ev@Base 0
 _ZN27QSnapdGetInterfaces2RequestD2Ev@Base 0
 _ZN27QSnapdInstallRequestPrivate11qt_metacallEN11QMetaObject4CallEiPPv@Base 0
 _ZN27QSnapdInstallRequestPrivate11qt_metacastEPKc@Base 0
 _ZN27QSnapdInstallRequestPrivate16staticMetaObjectE@Base 0
 _ZN27QSnapdInstallRequestPrivateD0Ev@Base 1.9
 _ZN27QSnapdInstallRequestPrivateD1Ev@Base 1.9
 _ZN27QSnapdInstallRequestPrivateD2Ev@Base 1.9
 _ZN28QSnapdFindRefreshableRequest11qt_metacallEN11QMetaObject4CallEiPPv@Base 0
 _ZN28QSnapdFindRefreshableRequest11qt_metacastEPKc@Base 0
 _ZN28QSnapdFindRefreshableRequest12handleResultEPvS0_@Base 0
 _ZN28QSnapdFindRefreshableRequest16staticMetaObjectE@Base 0
 _ZN28QSnapdFindRefreshableRequest7runSyncEv@Base 0
 _ZN28QSnapdFindRefreshableRequest8runAsyncEv@Base 0
 _ZN28QSnapdFindRefreshableRequestC1EPvP7QObject@Base 0
 _ZN28QSnapdFindRefreshableRequestC2EPvP7QObject@Base 0
 _ZN28QSnapdFindRefreshableRequestD0Ev@Base 0
 _ZN28QSnapdFindRefreshableRequestD1Ev@Base 0
 _ZN28QSnapdFindRefreshableRequestD2Ev@Base 0
 _ZN29QSnapdConnectInterfaceRequest11qt_metacallEN11QMetaObject4CallEiPPv@Base 0
 _ZN29QSnapdConnectInterfaceRequest11qt_metacastEPKc@Base 0
 _ZN29QSnapdConnectInterfaceRequest12handleResultEPvS0_@Base 0
 _ZN29QSnapdConnectInterfaceRequest16staticMetaObjectE@Base 0
 _ZN29QSnapdConnectInterfaceRequest7runSyncEv@Base 0
 _ZN29QSnapdConnectInterfaceRequest8runAsyncEv@Base 0
 _ZN29QSnapdConnectInterfaceRequestC1ERK7QStringS2_S2_S2_PvP7QObject@Base 0
 _ZN29QSnapdConnectInterfaceRequestC2ERK7QStringS2_S2_S2_PvP7QObject@Base 0
 _ZN29QSnapdConnectInterfaceRequestD0Ev@Base 0
 _ZN29QSnapdConnectInterfaceRequestD1Ev@Base 0
 _ZN29QSnapdConnectInterfaceRequestD2Ev@Base 0
 _ZN32QSnapdDisconnectInterfaceRequest11qt_metacallEN11QMetaObject4CallEiPPv@Base 0
 _ZN32QSnapdDisconnectInterfaceRequest11qt_metacastEPKc@Base 0
 _ZN32QSnapdDisconnectInterfaceRequest12handleResultEPvS0_@Base 0
 _ZN32QSnapdDisconnectInterfaceRequest16staticMetaObjectE@Base 0
 _ZN32QSnapdDisconnectInterfaceRequest7runSyncEv@Base 0
 _ZN32QSnapdDisconnectInterfaceRequest8runAsyncEv@Base 0
 _ZN32QSnapdDisconnectInterfaceRequestC1ERK7QStringS2_S2_S2_PvP7QObject@Base 0
 _ZN32QSnapdDisconnectInterfaceRequestC2ERK7QStringS2_S2_S2_PvP7QObject@Base 0
 _ZN32QSnapdDisconnectInterfaceRequestD0Ev@Base 0
 _ZN32QSnapdDisconnectInterfaceRequestD1Ev@Base 0
 _ZN32QSnapdDisconnectInterfaceRequestD2Ev@Base 0
 _ZN33QSnapdGetSystemInformationRequest11qt_metacallEN11QMetaObject4CallEiPPv@Base 0
 _ZN33QSnapdGetSystemInformationRequest11qt_metacastEPKc@Base 0
 _ZN33QSnapdGetSystemInformationRequest12handleResultEPvS0_@Base 0
 _ZN33QSnapdGetSystemInformationRequest16staticMetaObjectE@Base 0
 _ZN33QSnapdGetSystemInformationRequest17systemInformationEv@Base 1.5
 _ZN33QSnapdGetSystemInformationRequest7runSyncEv@Base 0
 _ZN33QSnapdGetSystemInformationRequest8runAsyncEv@Base 0
 _ZN33QSnapdGetSystemInformationRequestC1EPvP7QObject@Base 0
 _ZN33QSnapdGetSystemInformationRequestC2EPvP7QObject@Base 0
 _ZN33QSnapdGetSystemInformationRequestD0Ev@Base 0
 _ZN33QSnapdGetSystemInformationRequestD1Ev@Base 0
 _ZN33QSnapdGetSystemInformationRequestD2Ev@Base 0
 _ZN4QMapI7QString8QVariantEC1ERKS2_@Base 0
 _ZN4QMapI7QString8QVariantEC2ERKS2_@Base 0
 _ZN4QMapI7QString8QVariantED1Ev@Base 0
 _ZN4QMapI7QString8QVariantED2Ev@Base 0
 _ZN5QHashI7QString11QStringListE11deleteNode2EPN9QHashData4NodeE@Base 0
 _ZN5QHashI7QString11QStringListE13duplicateNodeEPN9QHashData4NodeEPv@Base 0
 _ZN5QHashI7QString8QVariantE11deleteNode2EPN9QHashData4NodeE@Base 0
 _ZN5QHashI7QString8QVariantE13detach_helperEv@Base 0
 _ZN5QHashI7QString8QVariantE13duplicateNodeEPN9QHashData4NodeEPv@Base 0
 _ZN5QHashI7QString8QVariantE6insertERKS0_RKS1_@Base 0
 _ZN5QHashI7QString8QVariantED1Ev@Base 0
 _ZN5QHashI7QString8QVariantED2Ev@Base 0
 _ZN5QListI18QSnapdMarkdownNodeE18detach_helper_growEii@Base 0
 _ZN5QListI18QSnapdMarkdownNodeE6appendERKS0_@Base 0
 _ZN5QListI7QStringE18detach_helper_growEii@Base 0
 _ZN5QListI7QStringE6appendERKS0_@Base 0
 _ZN5QListI7QStringEC1ERKS1_@Base 0
 _ZN5QListI7QStringEC2ERKS1_@Base 0
 _ZN5QListI7QStringED1Ev@Base 0
 _ZN5QListI7QStringED2Ev@Base 0
 _ZN5QListI8QVariantE13detach_helperEi@Base 0
 _ZN5QListI8QVariantE18detach_helper_growEii@Base 0
 _ZN5QListI8QVariantE6appendERKS0_@Base 0
 _ZN5QListI8QVariantED1Ev@Base 0
 _ZN5QListI8QVariantED2Ev@Base 0
 _ZN7QStringC1ERKS_@Base 0
 _ZN7QStringC2ERKS_@Base 0
 _ZN7QStringD1Ev@Base 0
 _ZN7QStringD2Ev@Base 0
 _ZN8QMapNodeI7QString8QVariantE14destroySubTreeEv@Base 0
 _ZN9QSnapdApp11qt_metacallEN11QMetaObject4CallEiPPv@Base 0
 _ZN9QSnapdApp11qt_metacastEPKc@Base 0
 _ZN9QSnapdApp16staticMetaObjectE@Base 0
 _ZN9QSnapdAppC1EPvP7QObject@Base 1.5
 _ZN9QSnapdAppC2EPvP7QObject@Base 1.5
 _ZN9QSnapdAppD0Ev@Base 1.5
 _ZN9QSnapdAppD1Ev@Base 1.5
 _ZN9QSnapdAppD2Ev@Base 1.5
 _ZNK10QSnapdIcon10metaObjectEv@Base 0
 _ZNK10QSnapdIcon4dataEv@Base 1.5
 _ZNK10QSnapdIcon8mimeTypeEv@Base 1.5
 _ZNK10QSnapdPlug10connectionEi@Base 1.8
 _ZNK10QSnapdPlug10metaObjectEv@Base 0
 _ZNK10QSnapdPlug12hasAttributeERK7QString@Base 1.48
 _ZNK10QSnapdPlug13connectedSlotEi@Base 1.48
 _ZNK10QSnapdPlug14attributeNamesEv@Base 1.48
 _ZNK10QSnapdPlug15connectionCountEv@Base 1.8
 _ZNK10QSnapdPlug18connectedSlotCountEv@Base 1.48
 _ZNK10QSnapdPlug4nameEv@Base 1.8
 _ZNK10QSnapdPlug4snapEv@Base 1.8
 _ZNK10QSnapdPlug5labelEv@Base 1.8
 _ZNK10QSnapdPlug9attributeERK7QString@Base 1.48
 _ZNK10QSnapdPlug9interfaceEv@Base 1.8
 _ZNK10QSnapdSlot10connectionEi@Base 1.8
 _ZNK10QSnapdSlot10metaObjectEv@Base 0
 _ZNK10QSnapdSlot12hasAttributeERK7QString@Base 1.48
 _ZNK10QSnapdSlot13connectedPlugEi@Base 1.48
 _ZNK10QSnapdSlot14attributeNamesEv@Base 1.48
 _ZNK10QSnapdSlot15connectionCountEv@Base 1.8
 _ZNK10QSnapdSlot18connectedPlugCountEv@Base 1.48
 _ZNK10QSnapdSlot4nameEv@Base 1.8
 _ZNK10QSnapdSlot4snapEv@Base 1.8
 _ZNK10QSnapdSlot5labelEv@Base 1.8
 _ZNK10QSnapdSlot9attributeERK7QString@Base 1.48
 _ZNK10QSnapdSlot9interfaceEv@Base 1.8
 _ZNK10QSnapdSnap10mediaCountEv@Base 1.45
 _ZNK10QSnapdSnap10metaObjectEv@Base 0
 _ZNK10QSnapdSnap10priceCountEv@Base 1.5
 _ZNK10QSnapdSnap10screenshotEi@Base 1.8
 _ZNK10QSnapdSnap11confinementEv@Base 1.5
 _ZNK10QSnapdSnap11descriptionEv@Base 1.5
 _ZNK10QSnapdSnap11installDateEv@Base 1.5
 _ZNK10QSnapdSnap11mountedFromEv@Base 1.45
 _ZNK10QSnapdSnap11publisherIdEv@Base 1.42
 _ZNK10QSnapdSnap12channelCountEv@Base 1.24
 _ZNK10QSnapdSnap12downloadSizeEv@Base 1.5
 _ZNK10QSnapdSnap12matchChannelERK7QString@Base 1.24
 _ZNK10QSnapdSnap13installedSizeEv@Base 1.5
 _ZNK10QSnapdSnap15screenshotCountEv@Base 1.8
 _ZNK10QSnapdSnap15trackingChannelEv@Base 1.7
 _ZNK10QSnapdSnap17publisherUsernameEv@Base 1.42
 _ZNK10QSnapdSnap19publisherValidationEv@Base 1.42
 _ZNK10QSnapdSnap20publisherDisplayNameEv@Base 1.42
 _ZNK10QSnapdSnap2idEv@Base 1.5
 _ZNK10QSnapdSnap3appEi@Base 1.5
 _ZNK10QSnapdSnap4baseEv@Base 1.45
 _ZNK10QSnapdSnap4iconEv@Base 1.5
 _ZNK10QSnapdSnap4nameEv@Base 1.5
 _ZNK10QSnapdSnap5mediaEi@Base 1.45
 _ZNK10QSnapdSnap5priceEi@Base 1.5
 _ZNK10QSnapdSnap5titleEv@Base 1.14
 _ZNK10QSnapdSnap6brokenEv@Base 1.25
 _ZNK10QSnapdSnap6statusEv@Base 1.5
 _ZNK10QSnapdSnap6tracksEv@Base 1.24
 _ZNK10QSnapdSnap7channelEi@Base 1.24
 _ZNK10QSnapdSnap7channelEv@Base 1.5
 _ZNK10QSnapdSnap7contactEv@Base 1.13
 _ZNK10QSnapdSnap7devmodeEv@Base 1.5
 _ZNK10QSnapdSnap7licenseEv@Base 1.19
 _ZNK10QSnapdSnap7summaryEv@Base 1.5
 _ZNK10QSnapdSnap7trymodeEv@Base 1.5
 _ZNK10QSnapdSnap7versionEv@Base 1.5
 _ZNK10QSnapdSnap8appCountEv@Base 1.5
 _ZNK10QSnapdSnap8jailmodeEv@Base 1.8
 _ZNK10QSnapdSnap8revisionEv@Base 1.5
 _ZNK10QSnapdSnap8snapTypeEv@Base 1.5
 _ZNK10QSnapdSnap9commonIdsEv@Base 1.41
 _ZNK10QSnapdSnap9developerEv@Base 1.5
 _ZNK10QSnapdSnap9isPrivateEv@Base 1.5
 _ZNK10QSnapdTask10metaObjectEv@Base 0
 _ZNK10QSnapdTask12progressDoneEv@Base 1.5
 _ZNK10QSnapdTask13progressLabelEv@Base 1.5
 _ZNK10QSnapdTask13progressTotalEv@Base 1.5
 _ZNK10QSnapdTask2idEv@Base 1.5
 _ZNK10QSnapdTask4kindEv@Base 1.5
 _ZNK10QSnapdTask6statusEv@Base 1.5
 _ZNK10QSnapdTask7summaryEv@Base 1.5
 _ZNK10QSnapdTask9readyTimeEv@Base 1.5
 _ZNK10QSnapdTask9spawnTimeEv@Base 1.5
 _ZNK11QSnapdAlias10metaObjectEv@Base 0
 _ZNK11QSnapdAlias3appEv@Base 1.8
 _ZNK11QSnapdAlias4nameEv@Base 1.8
 _ZNK11QSnapdAlias4snapEv@Base 1.8
 _ZNK11QSnapdAlias6statusEv@Base 1.8
 _ZNK11QSnapdAlias7appAutoEv@Base 1.25
 _ZNK11QSnapdAlias7commandEv@Base 1.25
 _ZNK11QSnapdAlias9appManualEv@Base 1.25
 _ZNK11QSnapdEnums10metaObjectEv@Base 0
 _ZNK11QSnapdMedia10metaObjectEv@Base 0
 _ZNK11QSnapdMedia3urlEv@Base 1.45
 _ZNK11QSnapdMedia4typeEv@Base 1.45
 _ZNK11QSnapdMedia5widthEv@Base 1.45
 _ZNK11QSnapdMedia6heightEv@Base 1.45
 _ZNK11QSnapdPrice10metaObjectEv@Base 0
 _ZNK11QSnapdPrice6amountEv@Base 1.5
 _ZNK11QSnapdPrice8currencyEv@Base 1.5
 _ZNK12QSnapdChange10metaObjectEv@Base 0
 _ZNK12QSnapdChange2idEv@Base 1.5
 _ZNK12QSnapdChange4kindEv@Base 1.5
 _ZNK12QSnapdChange4taskEi@Base 1.8
 _ZNK12QSnapdChange5errorEv@Base 1.30
 _ZNK12QSnapdChange5readyEv@Base 1.5
 _ZNK12QSnapdChange6statusEv@Base 1.5
 _ZNK12QSnapdChange7summaryEv@Base 1.5
 _ZNK12QSnapdChange9readyTimeEv@Base 1.5
 _ZNK12QSnapdChange9spawnTimeEv@Base 1.5
 _ZNK12QSnapdChange9taskCountEv@Base 1.8
 _ZNK12QSnapdClient10metaObjectEv@Base 0
 _ZNK12QSnapdClient10socketPathEv@Base 1.24
 _ZNK12QSnapdClient11maintenanceEv@Base 1.45
 _ZNK12QSnapdClient16allowInteractionEv@Base 1.19
 _ZNK12QSnapdClient9userAgentEv@Base 1.16
 _ZNK13QSnapdChannel10metaObjectEv@Base 0
 _ZNK13QSnapdChannel10releasedAtEv@Base 1.46
 _ZNK13QSnapdChannel11confinementEv@Base 1.24
 _ZNK13QSnapdChannel4nameEv@Base 1.24
 _ZNK13QSnapdChannel4riskEv@Base 1.31
 _ZNK13QSnapdChannel4sizeEv@Base 1.24
 _ZNK13QSnapdChannel5epochEv@Base 1.24
 _ZNK13QSnapdChannel5trackEv@Base 1.31
 _ZNK13QSnapdChannel6branchEv@Base 1.31
 _ZNK13QSnapdChannel7versionEv@Base 1.24
 _ZNK13QSnapdChannel8revisionEv@Base 1.24
 _ZNK13QSnapdPlugRef10metaObjectEv@Base 0
 _ZNK13QSnapdPlugRef4plugEv@Base 1.48
 _ZNK13QSnapdPlugRef4snapEv@Base 1.48
 _ZNK13QSnapdRequest10isFinishedEv@Base 1.5
 _ZNK13QSnapdRequest10metaObjectEv@Base 0
 _ZNK13QSnapdRequest11errorStringEv@Base 1.5
 _ZNK13QSnapdRequest14getCancellableEv@Base 1.5
 _ZNK13QSnapdRequest5errorEv@Base 1.5
 _ZNK13QSnapdRequest6changeEv@Base 1.5
 _ZNK13QSnapdRequest9getClientEv@Base 1.5
 _ZNK13QSnapdSlotRef10metaObjectEv@Base 0
 _ZNK13QSnapdSlotRef4slotEv@Base 1.48
 _ZNK13QSnapdSlotRef4snapEv@Base 1.48
 _ZNK14QSnapdAuthData10dischargesEv@Base 1.5
 _ZNK14QSnapdAuthData10metaObjectEv@Base 0
 _ZNK14QSnapdAuthData8macaroonEv@Base 1.5
 _ZNK15QSnapdAssertion10metaObjectEv@Base 0
 _ZNK15QSnapdAssertion4bodyEv@Base 1.8
 _ZNK15QSnapdAssertion6headerERK7QString@Base 1.8
 _ZNK15QSnapdAssertion7headersEv@Base 1.8
 _ZNK15QSnapdAssertion9signatureEv@Base 1.8
 _ZNK15QSnapdInterface10metaObjectEv@Base 0
 _ZNK15QSnapdInterface4nameEv@Base 1.48
 _ZNK15QSnapdInterface4plugEi@Base 1.48
 _ZNK15QSnapdInterface4slotEi@Base 1.48
 _ZNK15QSnapdInterface6docUrlEv@Base 1.48
 _ZNK15QSnapdInterface7summaryEv@Base 1.48
 _ZNK15QSnapdInterface9plugCountEv@Base 1.48
 _ZNK15QSnapdInterface9slotCountEv@Base 1.48
 _ZNK16QSnapdBuyRequest10metaObjectEv@Base 0
 _ZNK16QSnapdConnection10metaObjectEv@Base 0
 _ZNK16QSnapdConnection13plugAttributeERK7QString@Base 1.48
 _ZNK16QSnapdConnection13slotAttributeERK7QString@Base 1.48
 _ZNK16QSnapdConnection16hasPlugAttributeERK7QString@Base 1.48
 _ZNK16QSnapdConnection16hasSlotAttributeERK7QString@Base 1.48
 _ZNK16QSnapdConnection18plugAttributeNamesEv@Base 1.48
 _ZNK16QSnapdConnection18slotAttributeNamesEv@Base 1.48
 _ZNK16QSnapdConnection4nameEv@Base 1.5
 _ZNK16QSnapdConnection4plugEv@Base 1.48
 _ZNK16QSnapdConnection4slotEv@Base 1.48
 _ZNK16QSnapdConnection4snapEv@Base 1.5
 _ZNK16QSnapdConnection6gadgetEv@Base 1.48
 _ZNK16QSnapdConnection6manualEv@Base 1.48
 _ZNK16QSnapdConnection9interfaceEv@Base 1.48
 _ZNK16QSnapdScreenshot10metaObjectEv@Base 0
 _ZNK16QSnapdScreenshot3urlEv@Base 1.8
 _ZNK16QSnapdScreenshot5widthEv@Base 1.8
 _ZNK16QSnapdScreenshot6heightEv@Base 1.8
 _ZNK16QSnapdTryRequest10metaObjectEv@Base 0
 _ZNK17QSnapdFindRequest10metaObjectEv@Base 0
 _ZNK17QSnapdFindRequest17suggestedCurrencyEv@Base 1.5
 _ZNK17QSnapdFindRequest4snapEi@Base 1.5
 _ZNK17QSnapdFindRequest9snapCountEv@Base 1.5
 _ZNK17QSnapdListRequest10metaObjectEv@Base 0
 _ZNK17QSnapdListRequest4snapEi@Base 1.5
 _ZNK17QSnapdListRequest9snapCountEv@Base 1.5
 _ZNK17QSnapdMaintenance10metaObjectEv@Base 0
 _ZNK17QSnapdMaintenance4kindEv@Base 1.45
 _ZNK17QSnapdMaintenance7messageEv@Base 1.45
 _ZNK18QSnapdAliasRequest10metaObjectEv@Base 0
 _ZNK18QSnapdLoginRequest10metaObjectEv@Base 0
 _ZNK18QSnapdMarkdownNode10childCountEv@Base 1.48
 _ZNK18QSnapdMarkdownNode10metaObjectEv@Base 0
 _ZNK18QSnapdMarkdownNode4textEv@Base 1.48
 _ZNK18QSnapdMarkdownNode4typeEv@Base 1.48
 _ZNK18QSnapdMarkdownNode5childEi@Base 1.48
 _ZNK19QSnapdEnableRequest10metaObjectEv@Base 0
 _ZNK19QSnapdPreferRequest10metaObjectEv@Base 0
 _ZNK19QSnapdRemoveRequest10metaObjectEv@Base 0
 _ZNK19QSnapdWrappedObject10metaObjectEv@Base 0
 _ZNK20QSnapdConnectRequest10metaObjectEv@Base 0
 _ZNK20QSnapdDisableRequest10metaObjectEv@Base 0
 _ZNK20QSnapdGetAppsRequest10metaObjectEv@Base 0
 _ZNK20QSnapdGetAppsRequest3appEi@Base 1.25
 _ZNK20QSnapdGetAppsRequest8appCountEv@Base 1.25
 _ZNK20QSnapdGetIconRequest10metaObjectEv@Base 0
 _ZNK20QSnapdGetIconRequest4iconEv@Base 1.5
 _ZNK20QSnapdGetSnapRequest10metaObjectEv@Base 0
 _ZNK20QSnapdGetSnapRequest4snapEv@Base 1.42
 _ZNK20QSnapdInstallRequest10metaObjectEv@Base 0
 _ZNK20QSnapdListOneRequest10metaObjectEv@Base 0
 _ZNK20QSnapdListOneRequest4snapEv@Base 1.5
 _ZNK20QSnapdMarkdownParser10metaObjectEv@Base 0
 _ZNK20QSnapdMarkdownParser18preserveWhitespaceEv@Base 1.48
 _ZNK20QSnapdMarkdownParser21setPreserveWhitespaceEb@Base 1.48
 _ZNK20QSnapdMarkdownParser5parseERK7QString@Base 1.48
 _ZNK20QSnapdRefreshRequest10metaObjectEv@Base 0
 _ZNK20QSnapdUnaliasRequest10metaObjectEv@Base 0
 _ZNK21QSnapdCheckBuyRequest10metaObjectEv@Base 0
 _ZNK21QSnapdCheckBuyRequest6canBuyEv@Base 1.5
 _ZNK21QSnapdGetSnapsRequest10metaObjectEv@Base 0
 _ZNK21QSnapdGetSnapsRequest4snapEi@Base 1.42
 _ZNK21QSnapdGetSnapsRequest9snapCountEv@Base 1.42
 _ZNK21QSnapdGetUsersRequest10metaObjectEv@Base 0
 _ZNK21QSnapdGetUsersRequest15userInformationEi@Base 1.26
 _ZNK21QSnapdGetUsersRequest20userInformationCountEv@Base 1.26
 _ZNK21QSnapdUserInformation10metaObjectEv@Base 0
 _ZNK21QSnapdUserInformation2idEv@Base 1.26
 _ZNK21QSnapdUserInformation5emailEv@Base 1.26
 _ZNK21QSnapdUserInformation7sshKeysEv@Base 1.25
 _ZNK21QSnapdUserInformation8authDataEv@Base 1.26
 _ZNK21QSnapdUserInformation8usernameEv@Base 1.25
 _ZNK22QSnapdGetChangeRequest10metaObjectEv@Base 0
 _ZNK22QSnapdGetChangeRequest6changeEv@Base 1.29
 _ZNK23QSnapdCreateUserRequest10metaObjectEv@Base 0
 _ZNK23QSnapdCreateUserRequest15userInformationEv@Base 1.25
 _ZNK23QSnapdGetAliasesRequest10aliasCountEv@Base 1.8
 _ZNK23QSnapdGetAliasesRequest10metaObjectEv@Base 0
 _ZNK23QSnapdGetAliasesRequest5aliasEi@Base 1.8
 _ZNK23QSnapdGetChangesRequest10metaObjectEv@Base 0
 _ZNK23QSnapdGetChangesRequest11changeCountEv@Base 1.29
 _ZNK23QSnapdGetChangesRequest6changeEi@Base 1.29
 _ZNK23QSnapdRefreshAllRequest10metaObjectEv@Base 0
 _ZNK23QSnapdRefreshAllRequest9snapNamesEv@Base 1.8
 _ZNK23QSnapdRunSnapCtlRequest10metaObjectEv@Base 0
 _ZNK23QSnapdRunSnapCtlRequest6stderrEv@Base 1.8
 _ZNK23QSnapdRunSnapCtlRequest6stdoutEv@Base 1.8
 _ZNK23QSnapdSystemInformation10metaObjectEv@Base 0
 _ZNK23QSnapdSystemInformation11confinementEv@Base 1.14
 _ZNK23QSnapdSystemInformation11refreshHoldEv@Base 1.42
 _ZNK23QSnapdSystemInformation11refreshLastEv@Base 1.42
 _ZNK23QSnapdSystemInformation11refreshNextEv@Base 1.42
 _ZNK23QSnapdSystemInformation12refreshTimerEv@Base 1.42
 _ZNK23QSnapdSystemInformation13kernelVersionEv@Base 1.11
 _ZNK23QSnapdSystemInformation14mountDirectoryEv@Base 1.11
 _ZNK23QSnapdSystemInformation15refreshScheduleEv@Base 1.42
 _ZNK23QSnapdSystemInformation15sandboxFeaturesEv@Base 1.42
 _ZNK23QSnapdSystemInformation17binariesDirectoryEv@Base 1.11
 _ZNK23QSnapdSystemInformation4osIdEv@Base 1.5
 _ZNK23QSnapdSystemInformation5storeEv@Base 1.7
 _ZNK23QSnapdSystemInformation6seriesEv@Base 1.5
 _ZNK23QSnapdSystemInformation7buildIdEv@Base 1.40
 _ZNK23QSnapdSystemInformation7managedEv@Base 1.7
 _ZNK23QSnapdSystemInformation7versionEv@Base 1.5
 _ZNK23QSnapdSystemInformation9onClassicEv@Base 1.5
 _ZNK23QSnapdSystemInformation9osVersionEv@Base 1.5
 _ZNK24QSnapdAbortChangeRequest10metaObjectEv@Base 0
 _ZNK24QSnapdAbortChangeRequest6changeEv@Base 1.30
 _ZNK24QSnapdCreateUsersRequest10metaObjectEv@Base 0
 _ZNK24QSnapdCreateUsersRequest15userInformationEi@Base 1.25
 _ZNK24QSnapdCreateUsersRequest20userInformationCountEv@Base 1.25
 _ZNK24QSnapdGetSectionsRequest10metaObjectEv@Base 0
 _ZNK24QSnapdGetSectionsRequest8sectionsEv@Base 1.7
 _ZNK24QSnapdGetSnapConfRequest10metaObjectEv@Base 0
 _ZNK24QSnapdGetSnapConfRequest13configurationEv@Base 1.48
 _ZNK24QSnapdSetSnapConfRequest10metaObjectEv@Base 0
 _ZNK25QSnapdResetAliasesRequest10metaObjectEv@Base 0
 _ZNK26QSnapdAddAssertionsRequest10metaObjectEv@Base 0
 _ZNK26QSnapdEnableAliasesRequest10metaObjectEv@Base 0
 _ZNK26QSnapdGetAssertionsRequest10assertionsEv@Base 1.8
 _ZNK26QSnapdGetAssertionsRequest10metaObjectEv@Base 0
 _ZNK26QSnapdGetInterfacesRequest10metaObjectEv@Base 0
 _ZNK26QSnapdGetInterfacesRequest4plugEi@Base 1.5
 _ZNK26QSnapdGetInterfacesRequest4slotEi@Base 1.5
 _ZNK26QSnapdGetInterfacesRequest9plugCountEv@Base 1.5
 _ZNK26QSnapdGetInterfacesRequest9slotCountEv@Base 1.5
 _ZNK26QSnapdSwitchChannelRequest10metaObjectEv@Base 0
 _ZNK27QSnapdDisableAliasesRequest10metaObjectEv@Base 0
 _ZNK27QSnapdGetConnectionsRequest10metaObjectEv@Base 0
 _ZNK27QSnapdGetConnectionsRequest11establishedEi@Base 1.48
 _ZNK27QSnapdGetConnectionsRequest14undesiredCountEv@Base 1.48
 _ZNK27QSnapdGetConnectionsRequest16establishedCountEv@Base 1.48
 _ZNK27QSnapdGetConnectionsRequest4plugEi@Base 1.48
 _ZNK27QSnapdGetConnectionsRequest4slotEi@Base 1.48
 _ZNK27QSnapdGetConnectionsRequest9plugCountEv@Base 1.48
 _ZNK27QSnapdGetConnectionsRequest9slotCountEv@Base 1.48
 _ZNK27QSnapdGetConnectionsRequest9undesiredEi@Base 1.48
 _ZNK27QSnapdGetInterfaces2Request10metaObjectEv@Base 0
 _ZNK27QSnapdGetInterfaces2Request14interfaceCountEv@Base 1.48
 _ZNK27QSnapdGetInterfaces2Request9interfaceEi@Base 1.48
 _ZNK27QSnapdInstallRequestPrivate10metaObjectEv@Base 0
 _ZNK28QSnapdFindRefreshableRequest10metaObjectEv@Base 0
 _ZNK28QSnapdFindRefreshableRequest4snapEi@Base 1.8
 _ZNK28QSnapdFindRefreshableRequest9snapCountEv@Base 1.8
 _ZNK29QSnapdConnectInterfaceRequest10metaObjectEv@Base 0
 _ZNK32QSnapdDisconnectInterfaceRequest10metaObjectEv@Base 0
 _ZNK33QSnapdGetSystemInformationRequest10metaObjectEv@Base 0
 _ZNK5QHashI7QString11QStringListE8findNodeERKS0_j@Base 0
 _ZNK5QHashI7QString8QVariantE8findNodeERKS0_j@Base 0
 _ZNK7QString11toStdStringB5cxx11Ev@Base 0
 _ZNK8QMapNodeI7QString8QVariantE4copyEP8QMapDataIS0_S1_E@Base 0
 _ZNK9QSnapdApp10daemonTypeEv@Base 1.9
 _ZNK9QSnapdApp10metaObjectEv@Base 0
 _ZNK9QSnapdApp11desktopFileEv@Base 1.14
 _ZNK9QSnapdApp4nameEv@Base 1.5
 _ZNK9QSnapdApp4snapEv@Base 1.25
 _ZNK9QSnapdApp6activeEv@Base 1.25
 _ZNK9QSnapdApp7aliasesEv@Base 1.7
 _ZNK9QSnapdApp7enabledEv@Base 1.25
 _ZNK9QSnapdApp8commonIdEv@Base 1.41
 _ZTI10QSnapdIcon@Base 0
 _ZTI10QSnapdPlug@Base 0
 _ZTI10QSnapdSlot@Base 0
 _ZTI10QSnapdSnap@Base 0
 _ZTI10QSnapdTask@Base 0
 _ZTI11QSnapdAlias@Base 0
 _ZTI11QSnapdEnums@Base 0
 _ZTI11QSnapdMedia@Base 0
 _ZTI11QSnapdPrice@Base 0
 _ZTI12QSnapdChange@Base 0
 _ZTI12QSnapdClient@Base 0
 _ZTI13QSnapdChannel@Base 0
 _ZTI13QSnapdPlugRef@Base 0
 _ZTI13QSnapdRequest@Base 0
 _ZTI13QSnapdSlotRef@Base 0
 _ZTI14QSnapdAuthData@Base 0
 _ZTI15QSnapdAssertion@Base 0
 _ZTI15QSnapdInterface@Base 0
 _ZTI16QSnapdBuyRequest@Base 0
 _ZTI16QSnapdConnection@Base 0
 _ZTI16QSnapdScreenshot@Base 0
 _ZTI16QSnapdTryRequest@Base 0
 _ZTI17QSnapdFindRequest@Base 0
 _ZTI17QSnapdListRequest@Base 0
 _ZTI17QSnapdMaintenance@Base 0
 _ZTI18QSnapdAliasRequest@Base 0
 _ZTI18QSnapdLoginRequest@Base 0
 _ZTI18QSnapdMarkdownNode@Base 0
 _ZTI19QSnapdEnableRequest@Base 0
 _ZTI19QSnapdPreferRequest@Base 0
 _ZTI19QSnapdRemoveRequest@Base 0
 _ZTI19QSnapdWrappedObject@Base 0
 _ZTI20QSnapdConnectRequest@Base 0
 _ZTI20QSnapdDisableRequest@Base 0
 _ZTI20QSnapdGetAppsRequest@Base 0
 _ZTI20QSnapdGetIconRequest@Base 0
 _ZTI20QSnapdGetSnapRequest@Base 0
 _ZTI20QSnapdInstallRequest@Base 0
 _ZTI20QSnapdListOneRequest@Base 0
 _ZTI20QSnapdMarkdownParser@Base 0
 _ZTI20QSnapdRefreshRequest@Base 0
 _ZTI20QSnapdUnaliasRequest@Base 0
 _ZTI21QSnapdCheckBuyRequest@Base 0
 _ZTI21QSnapdGetSnapsRequest@Base 0
 _ZTI21QSnapdGetUsersRequest@Base 0
 _ZTI21QSnapdUserInformation@Base 0
 _ZTI22QSnapdGetChangeRequest@Base 0
 _ZTI23QSnapdCreateUserRequest@Base 0
 _ZTI23QSnapdGetAliasesRequest@Base 0
 _ZTI23QSnapdGetChangesRequest@Base 0
 _ZTI23QSnapdRefreshAllRequest@Base 0
 _ZTI23QSnapdRunSnapCtlRequest@Base 0
 _ZTI23QSnapdSystemInformation@Base 0
 _ZTI24QSnapdAbortChangeRequest@Base 0
 _ZTI24QSnapdCreateUsersRequest@Base 0
 _ZTI24QSnapdGetSectionsRequest@Base 0
 _ZTI24QSnapdGetSnapConfRequest@Base 0
 _ZTI24QSnapdSetSnapConfRequest@Base 0
 _ZTI25QSnapdResetAliasesRequest@Base 0
 _ZTI26QSnapdAddAssertionsRequest@Base 0
 _ZTI26QSnapdEnableAliasesRequest@Base 0
 _ZTI26QSnapdGetAssertionsRequest@Base 0
 _ZTI26QSnapdGetInterfacesRequest@Base 0
 _ZTI26QSnapdSwitchChannelRequest@Base 0
 _ZTI27QSnapdDisableAliasesRequest@Base 0
 _ZTI27QSnapdGetConnectionsRequest@Base 0
 _ZTI27QSnapdGetInterfaces2Request@Base 0
 _ZTI27QSnapdInstallRequestPrivate@Base 0
 _ZTI28QSnapdFindRefreshableRequest@Base 0
 _ZTI29QSnapdConnectInterfaceRequest@Base 0
 _ZTI32QSnapdDisconnectInterfaceRequest@Base 0
 _ZTI33QSnapdGetSystemInformationRequest@Base 0
 _ZTI9QSnapdApp@Base 0
 _ZTS10QSnapdIcon@Base 0
 _ZTS10QSnapdPlug@Base 0
 _ZTS10QSnapdSlot@Base 0
 _ZTS10QSnapdSnap@Base 0
 _ZTS10QSnapdTask@Base 0
 _ZTS11QSnapdAlias@Base 0
 _ZTS11QSnapdEnums@Base 0
 _ZTS11QSnapdMedia@Base 0
 _ZTS11QSnapdPrice@Base 0
 _ZTS12QSnapdChange@Base 0
 _ZTS12QSnapdClient@Base 0
 _ZTS13QSnapdChannel@Base 0
 _ZTS13QSnapdPlugRef@Base 0
 _ZTS13QSnapdRequest@Base 0
 _ZTS13QSnapdSlotRef@Base 0
 _ZTS14QSnapdAuthData@Base 0
 _ZTS15QSnapdAssertion@Base 0
 _ZTS15QSnapdInterface@Base 0
 _ZTS16QSnapdBuyRequest@Base 0
 _ZTS16QSnapdConnection@Base 0
 _ZTS16QSnapdScreenshot@Base 0
 _ZTS16QSnapdTryRequest@Base 0
 _ZTS17QSnapdFindRequest@Base 0
 _ZTS17QSnapdListRequest@Base 0
 _ZTS17QSnapdMaintenance@Base 0
 _ZTS18QSnapdAliasRequest@Base 0
 _ZTS18QSnapdLoginRequest@Base 0
 _ZTS18QSnapdMarkdownNode@Base 0
 _ZTS19QSnapdEnableRequest@Base 0
 _ZTS19QSnapdPreferRequest@Base 0
 _ZTS19QSnapdRemoveRequest@Base 0
 _ZTS19QSnapdWrappedObject@Base 0
 _ZTS20QSnapdConnectRequest@Base 0
 _ZTS20QSnapdDisableRequest@Base 0
 _ZTS20QSnapdGetAppsRequest@Base 0
 _ZTS20QSnapdGetIconRequest@Base 0
 _ZTS20QSnapdGetSnapRequest@Base 0
 _ZTS20QSnapdInstallRequest@Base 0
 _ZTS20QSnapdListOneRequest@Base 0
 _ZTS20QSnapdMarkdownParser@Base 0
 _ZTS20QSnapdRefreshRequest@Base 0
 _ZTS20QSnapdUnaliasRequest@Base 0
 _ZTS21QSnapdCheckBuyRequest@Base 0
 _ZTS21QSnapdGetSnapsRequest@Base 0
 _ZTS21QSnapdGetUsersRequest@Base 0
 _ZTS21QSnapdUserInformation@Base 0
 _ZTS22QSnapdGetChangeRequest@Base 0
 _ZTS23QSnapdCreateUserRequest@Base 0
 _ZTS23QSnapdGetAliasesRequest@Base 0
 _ZTS23QSnapdGetChangesRequest@Base 0
 _ZTS23QSnapdRefreshAllRequest@Base 0
 _ZTS23QSnapdRunSnapCtlRequest@Base 0
 _ZTS23QSnapdSystemInformation@Base 0
 _ZTS24QSnapdAbortChangeRequest@Base 0
 _ZTS24QSnapdCreateUsersRequest@Base 0
 _ZTS24QSnapdGetSectionsRequest@Base 0
 _ZTS24QSnapdGetSnapConfRequest@Base 0
 _ZTS24QSnapdSetSnapConfRequest@Base 0
 _ZTS25QSnapdResetAliasesRequest@Base 0
 _ZTS26QSnapdAddAssertionsRequest@Base 0
 _ZTS26QSnapdEnableAliasesRequest@Base 0
 _ZTS26QSnapdGetAssertionsRequest@Base 0
 _ZTS26QSnapdGetInterfacesRequest@Base 0
 _ZTS26QSnapdSwitchChannelRequest@Base 0
 _ZTS27QSnapdDisableAliasesRequest@Base 0
 _ZTS27QSnapdGetConnectionsRequest@Base 0
 _ZTS27QSnapdGetInterfaces2Request@Base 0
 _ZTS27QSnapdInstallRequestPrivate@Base 0
 _ZTS28QSnapdFindRefreshableRequest@Base 0
 _ZTS29QSnapdConnectInterfaceRequest@Base 0
 _ZTS32QSnapdDisconnectInterfaceRequest@Base 0
 _ZTS33QSnapdGetSystemInformationRequest@Base 0
 _ZTS9QSnapdApp@Base 0
 _ZTV10QSnapdIcon@Base 0
 _ZTV10QSnapdPlug@Base 0
 _ZTV10QSnapdSlot@Base 0
 _ZTV10QSnapdSnap@Base 0
 _ZTV10QSnapdTask@Base 0
 _ZTV11QSnapdAlias@Base 0
 _ZTV11QSnapdEnums@Base 0
 _ZTV11QSnapdMedia@Base 0
 _ZTV11QSnapdPrice@Base 0
 _ZTV12QSnapdChange@Base 0
 _ZTV12QSnapdClient@Base 0
 _ZTV13QSnapdChannel@Base 0
 _ZTV13QSnapdPlugRef@Base 0
 _ZTV13QSnapdRequest@Base 0
 _ZTV13QSnapdSlotRef@Base 0
 _ZTV14QSnapdAuthData@Base 0
 _ZTV15QSnapdAssertion@Base 0
 _ZTV15QSnapdInterface@Base 0
 _ZTV16QSnapdBuyRequest@Base 0
 _ZTV16QSnapdConnection@Base 0
 _ZTV16QSnapdScreenshot@Base 0
 _ZTV16QSnapdTryRequest@Base 0
 _ZTV17QSnapdFindRequest@Base 0
 _ZTV17QSnapdListRequest@Base 0
 _ZTV17QSnapdMaintenance@Base 0
 _ZTV18QSnapdAliasRequest@Base 0
 _ZTV18QSnapdLoginRequest@Base 0
 _ZTV18QSnapdMarkdownNode@Base 0
 _ZTV19QSnapdEnableRequest@Base 0
 _ZTV19QSnapdPreferRequest@Base 0
 _ZTV19QSnapdRemoveRequest@Base 0
 _ZTV19QSnapdWrappedObject@Base 0
 _ZTV20QSnapdConnectRequest@Base 0
 _ZTV20QSnapdDisableRequest@Base 0
 _ZTV20QSnapdGetAppsRequest@Base 0
 _ZTV20QSnapdGetIconRequest@Base 0
 _ZTV20QSnapdGetSnapRequest@Base 0
 _ZTV20QSnapdInstallRequest@Base 0
 _ZTV20QSnapdListOneRequest@Base 0
 _ZTV20QSnapdMarkdownParser@Base 0
 _ZTV20QSnapdRefreshRequest@Base 0
 _ZTV20QSnapdUnaliasRequest@Base 0
 _ZTV21QSnapdCheckBuyRequest@Base 0
 _ZTV21QSnapdGetSnapsRequest@Base 0
 _ZTV21QSnapdGetUsersRequest@Base 0
 _ZTV21QSnapdUserInformation@Base 0
 _ZTV22QSnapdGetChangeRequest@Base 0
 _ZTV23QSnapdCreateUserRequest@Base 0
 _ZTV23QSnapdGetAliasesRequest@Base 0
 _ZTV23QSnapdGetChangesRequest@Base 0
 _ZTV23QSnapdRefreshAllRequest@Base 0
 _ZTV23QSnapdRunSnapCtlRequest@Base 0
 _ZTV23QSnapdSystemInformation@Base 0
 _ZTV24QSnapdAbortChangeRequest@Base 0
 _ZTV24QSnapdCreateUsersRequest@Base 0
 _ZTV24QSnapdGetSectionsRequest@Base 0
 _ZTV24QSnapdGetSnapConfRequest@Base 0
 _ZTV24QSnapdSetSnapConfRequest@Base 0
 _ZTV25QSnapdResetAliasesRequest@Base 0
 _ZTV26QSnapdAddAssertionsRequest@Base 0
 _ZTV26QSnapdEnableAliasesRequest@Base 0
 _ZTV26QSnapdGetAssertionsRequest@Base 0
 _ZTV26QSnapdGetInterfacesRequest@Base 0
 _ZTV26QSnapdSwitchChannelRequest@Base 0
 _ZTV27QSnapdDisableAliasesRequest@Base 0
 _ZTV27QSnapdGetConnectionsRequest@Base 0
 _ZTV27QSnapdGetInterfaces2Request@Base 0
 _ZTV27QSnapdInstallRequestPrivate@Base 0
 _ZTV28QSnapdFindRefreshableRequest@Base 0
 _ZTV29QSnapdConnectInterfaceRequest@Base 0
 _ZTV32QSnapdDisconnectInterfaceRequest@Base 0
 _ZTV33QSnapdGetSystemInformationRequest@Base 0
 _ZTV9QSnapdApp@Base 0
 _ZZN18QMetaTypeIdQObjectIP14QSnapdAuthDataLi8EE14qt_metatype_idEvE11metatype_id@Base 0
 _ZZN18QMetaTypeIdQObjectIP21QSnapdUserInformationLi8EE14qt_metatype_idEvE11metatype_id@Base 0
 _ZZN18QMetaTypeIdQObjectIP23QSnapdSystemInformationLi8EE14qt_metatype_idEvE11metatype_id@Base 0
 stream_wrapper_get_type@Base 1.9
